;
; Definition file of uhd.dll
; Automatic generated by gendef
; written by Kai Tietz 2008
;
LIBRARY "uhd.dll"
EXPORTS
; int __cdecl uhd::cast::<int>(class std::<char,struct std::<char>,class std::<char>> const &__ptr64 )
??$from_str@H@cast@uhd@@YAHAEBV?$basic_string@DU?$char_traits@D@std@@V?$allocator@D@2@@std@@@Z
; double __cdecl uhd::cast::<double>(class std::<char,struct std::<char>,class std::<char>> const &__ptr64 )
??$from_str@N@cast@uhd@@YANAEBV?$basic_string@DU?$char_traits@D@std@@V?$allocator@D@2@@std@@@Z
; class std::<char,struct std::<char>,class std::<char>> __cdecl uhd::cast::<class std::<char,struct std::<char>,class std::<char>>>(class std::<char,struct std::<char>,class std::<char>> const &__ptr64 )
??$from_str@V?$basic_string@DU?$char_traits@D@std@@V?$allocator@D@2@@std@@@cast@uhd@@YA?AV?$basic_string@DU?$char_traits@D@std@@V?$allocator@D@2@@std@@AEBV23@@Z
; bool __cdecl uhd::cast::<bool>(class std::<char,struct std::<char>,class std::<char>> const &__ptr64 )
??$from_str@_N@cast@uhd@@YA_NAEBV?$basic_string@DU?$char_traits@D@std@@V?$allocator@D@2@@std@@@Z
; public: __cdecl boost::archive::<wchar_t>::<wchar_t>(unsigned __int64)__ptr64 
??0?$codecvt_null@_W@archive@boost@@QEAA@_K@Z
; public: __cdecl uhd::<class std::<char,struct std::<char>,class std::<char>>,class std::<char,struct std::<char>,class std::<char>>>::<class std::<char,struct std::<char>,class std::<char>>,class std::<char,struct std::<char>,class std::<char>>>(class uhd::<class std::<char,struct std::<char>,class std::<char>>,class std::<char,struct std::<char>,class std::<char>>> const &__ptr64 )__ptr64 
??0?$dict@V?$basic_string@DU?$char_traits@D@std@@V?$allocator@D@2@@std@@V12@@uhd@@QEAA@AEBV01@@Z
; public: __cdecl uhd::<class std::<char,struct std::<char>,class std::<char>>,class std::<char,struct std::<char>,class std::<char>>>::<class std::<char,struct std::<char>,class std::<char>>,class std::<char,struct std::<char>,class std::<char>>>(void)__ptr64 
??0?$dict@V?$basic_string@DU?$char_traits@D@std@@V?$allocator@D@2@@std@@V12@@uhd@@QEAA@XZ
; protected: __cdecl std::<class uhd::rfnoc::rfnoc_graph>::<class uhd::rfnoc::rfnoc_graph>(class std::<class uhd::rfnoc::rfnoc_graph> const &__ptr64 )__ptr64 
??0?$enable_shared_from_this@Vrfnoc_graph@rfnoc@uhd@@@std@@IEAA@AEBV01@@Z
; protected: __cdecl std::<class uhd::rfnoc::rfnoc_graph>::<class uhd::rfnoc::rfnoc_graph>(void)__ptr64 
??0?$enable_shared_from_this@Vrfnoc_graph@rfnoc@uhd@@@std@@IEAA@XZ
; public: __cdecl uhd::<void *__ptr64>::<void *__ptr64>(void *__ptr64 const *__ptr64,unsigned __int64)__ptr64 
??0?$ref_vector@PEAX@uhd@@QEAA@PEBQEAX_K@Z
; public: __cdecl uhd::<void const *__ptr64>::<void const *__ptr64>(void const *__ptr64 const *__ptr64,unsigned __int64)__ptr64 
??0?$ref_vector@PEBX@uhd@@QEAA@PEBQEBX_K@Z
; protected: __cdecl boost::serialization::<class boost::serialization::<struct uhd::usrprio_rpc::usrprio_device_info>>::<class boost::serialization::<struct uhd::usrprio_rpc::usrprio_device_info>>(void)__ptr64 
??0?$singleton@V?$extended_type_info_typeid@Uusrprio_device_info@usrprio_rpc@uhd@@@serialization@boost@@@serialization@boost@@IEAA@XZ
; public: __cdecl uhd::<unsigned int,0x1ULL,0x0ULL>::<unsigned int,0x1ULL,0x0ULL>(unsigned int,enum uhd::soft_reg_flush_mode_t)__ptr64 
??0?$soft_register_t@I$00$0A@@uhd@@QEAA@IW4soft_reg_flush_mode_t@1@@Z
; public: __cdecl uhd::<unsigned int,0x0ULL,0x1ULL>::<unsigned int,0x0ULL,0x1ULL>(unsigned int,enum uhd::soft_reg_flush_mode_t)__ptr64 
??0?$soft_register_t@I$0A@$00@uhd@@QEAA@IW4soft_reg_flush_mode_t@1@@Z
; public: __cdecl uhd::<unsigned __int64,0x1ULL,0x0ULL>::<unsigned __int64,0x1ULL,0x0ULL>(unsigned int,enum uhd::soft_reg_flush_mode_t)__ptr64 
??0?$soft_register_t@_K$00$0A@@uhd@@QEAA@IW4soft_reg_flush_mode_t@1@@Z
; public: __cdecl std::<struct uhd::usrp::subdev_spec_pair_t,class std::<struct uhd::usrp::subdev_spec_pair_t>>::<struct uhd::usrp::subdev_spec_pair_t,class std::<struct uhd::usrp::subdev_spec_pair_t>>(,class std::<struct uhd::usrp::subdev_spec_pair_t,class std::<struct uhd::usrp::subdev_spec_pair_t>> *__ptr64 const)__ptr64 
??0?$vector@Usubdev_spec_pair_t@usrp@uhd@@V?$allocator@Usubdev_spec_pair_t@usrp@uhd@@@std@@@std@@QEAA@$$QEAV01@@Z
; public: __cdecl std::<struct uhd::usrp::subdev_spec_pair_t,class std::<struct uhd::usrp::subdev_spec_pair_t>>::<struct uhd::usrp::subdev_spec_pair_t,class std::<struct uhd::usrp::subdev_spec_pair_t>>(,class std::<struct uhd::usrp::subdev_spec_pair_t,class std::<struct uhd::usrp::subdev_spec_pair_t>> *__ptr64 const,class std::<struct uhd::usrp::subdev_spec_pair_t> const &__ptr64 )__ptr64 
??0?$vector@Usubdev_spec_pair_t@usrp@uhd@@V?$allocator@Usubdev_spec_pair_t@usrp@uhd@@@std@@@std@@QEAA@$$QEAV01@AEBV?$allocator@Usubdev_spec_pair_t@usrp@uhd@@@1@@Z
; public: __cdecl std::<struct uhd::usrp::subdev_spec_pair_t,class std::<struct uhd::usrp::subdev_spec_pair_t>>::<struct uhd::usrp::subdev_spec_pair_t,class std::<struct uhd::usrp::subdev_spec_pair_t>>(class std::<struct uhd::usrp::subdev_spec_pair_t,class std::<struct uhd::usrp::subdev_spec_pair_t>> const &__ptr64 )__ptr64 
??0?$vector@Usubdev_spec_pair_t@usrp@uhd@@V?$allocator@Usubdev_spec_pair_t@usrp@uhd@@@std@@@std@@QEAA@AEBV01@@Z
; public: __cdecl std::<struct uhd::usrp::subdev_spec_pair_t,class std::<struct uhd::usrp::subdev_spec_pair_t>>::<struct uhd::usrp::subdev_spec_pair_t,class std::<struct uhd::usrp::subdev_spec_pair_t>>(class std::<struct uhd::usrp::subdev_spec_pair_t,class std::<struct uhd::usrp::subdev_spec_pair_t>> const &__ptr64 ,class std::<struct uhd::usrp::subdev_spec_pair_t> const &__ptr64 )__ptr64 
??0?$vector@Usubdev_spec_pair_t@usrp@uhd@@V?$allocator@Usubdev_spec_pair_t@usrp@uhd@@@std@@@std@@QEAA@AEBV01@AEBV?$allocator@Usubdev_spec_pair_t@usrp@uhd@@@1@@Z
; public: __cdecl std::<struct uhd::usrp::subdev_spec_pair_t,class std::<struct uhd::usrp::subdev_spec_pair_t>>::<struct uhd::usrp::subdev_spec_pair_t,class std::<struct uhd::usrp::subdev_spec_pair_t>>(class std::<struct uhd::usrp::subdev_spec_pair_t> const &__ptr64 )__ptr64 
??0?$vector@Usubdev_spec_pair_t@usrp@uhd@@V?$allocator@Usubdev_spec_pair_t@usrp@uhd@@@std@@@std@@QEAA@AEBV?$allocator@Usubdev_spec_pair_t@usrp@uhd@@@1@@Z
; public: __cdecl std::<struct uhd::usrp::subdev_spec_pair_t,class std::<struct uhd::usrp::subdev_spec_pair_t>>::<struct uhd::usrp::subdev_spec_pair_t,class std::<struct uhd::usrp::subdev_spec_pair_t>>(class std::<struct uhd::usrp::subdev_spec_pair_t>,class std::<struct uhd::usrp::subdev_spec_pair_t> const &__ptr64 )__ptr64 
??0?$vector@Usubdev_spec_pair_t@usrp@uhd@@V?$allocator@Usubdev_spec_pair_t@usrp@uhd@@@std@@@std@@QEAA@V?$initializer_list@Usubdev_spec_pair_t@usrp@uhd@@@1@AEBV?$allocator@Usubdev_spec_pair_t@usrp@uhd@@@1@@Z
; public: __cdecl std::<struct uhd::usrp::subdev_spec_pair_t,class std::<struct uhd::usrp::subdev_spec_pair_t>>::<struct uhd::usrp::subdev_spec_pair_t,class std::<struct uhd::usrp::subdev_spec_pair_t>>(void)__ptr64 
??0?$vector@Usubdev_spec_pair_t@usrp@uhd@@V?$allocator@Usubdev_spec_pair_t@usrp@uhd@@@std@@@std@@QEAA@XZ
; public: __cdecl std::<struct uhd::usrp::subdev_spec_pair_t,class std::<struct uhd::usrp::subdev_spec_pair_t>>::<struct uhd::usrp::subdev_spec_pair_t,class std::<struct uhd::usrp::subdev_spec_pair_t>>(unsigned __int64,struct uhd::usrp::subdev_spec_pair_t const &__ptr64 ,class std::<struct uhd::usrp::subdev_spec_pair_t> const &__ptr64 )__ptr64 
??0?$vector@Usubdev_spec_pair_t@usrp@uhd@@V?$allocator@Usubdev_spec_pair_t@usrp@uhd@@@std@@@std@@QEAA@_KAEBUsubdev_spec_pair_t@usrp@uhd@@AEBV?$allocator@Usubdev_spec_pair_t@usrp@uhd@@@1@@Z
; public: __cdecl std::<struct uhd::usrp::subdev_spec_pair_t,class std::<struct uhd::usrp::subdev_spec_pair_t>>::<struct uhd::usrp::subdev_spec_pair_t,class std::<struct uhd::usrp::subdev_spec_pair_t>>(unsigned __int64,class std::<struct uhd::usrp::subdev_spec_pair_t> const &__ptr64 )__ptr64 
??0?$vector@Usubdev_spec_pair_t@usrp@uhd@@V?$allocator@Usubdev_spec_pair_t@usrp@uhd@@@std@@@std@@QEAA@_KAEBV?$allocator@Usubdev_spec_pair_t@usrp@uhd@@@1@@Z
; public: __cdecl std::<class uhd::range_t,class std::<class uhd::range_t>>::<class uhd::range_t,class std::<class uhd::range_t>>(,class std::<class uhd::range_t,class std::<class uhd::range_t>> *__ptr64 const)__ptr64 
??0?$vector@Vrange_t@uhd@@V?$allocator@Vrange_t@uhd@@@std@@@std@@QEAA@$$QEAV01@@Z
; public: __cdecl std::<class uhd::range_t,class std::<class uhd::range_t>>::<class uhd::range_t,class std::<class uhd::range_t>>(,class std::<class uhd::range_t,class std::<class uhd::range_t>> *__ptr64 const,class std::<class uhd::range_t> const &__ptr64 )__ptr64 
??0?$vector@Vrange_t@uhd@@V?$allocator@Vrange_t@uhd@@@std@@@std@@QEAA@$$QEAV01@AEBV?$allocator@Vrange_t@uhd@@@1@@Z
; public: __cdecl std::<class uhd::range_t,class std::<class uhd::range_t>>::<class uhd::range_t,class std::<class uhd::range_t>>(class std::<class uhd::range_t,class std::<class uhd::range_t>> const &__ptr64 )__ptr64 
??0?$vector@Vrange_t@uhd@@V?$allocator@Vrange_t@uhd@@@std@@@std@@QEAA@AEBV01@@Z
; public: __cdecl std::<class uhd::range_t,class std::<class uhd::range_t>>::<class uhd::range_t,class std::<class uhd::range_t>>(class std::<class uhd::range_t,class std::<class uhd::range_t>> const &__ptr64 ,class std::<class uhd::range_t> const &__ptr64 )__ptr64 
??0?$vector@Vrange_t@uhd@@V?$allocator@Vrange_t@uhd@@@std@@@std@@QEAA@AEBV01@AEBV?$allocator@Vrange_t@uhd@@@1@@Z
; public: __cdecl std::<class uhd::range_t,class std::<class uhd::range_t>>::<class uhd::range_t,class std::<class uhd::range_t>>(class std::<class uhd::range_t> const &__ptr64 )__ptr64 
??0?$vector@Vrange_t@uhd@@V?$allocator@Vrange_t@uhd@@@std@@@std@@QEAA@AEBV?$allocator@Vrange_t@uhd@@@1@@Z
; public: __cdecl std::<class uhd::range_t,class std::<class uhd::range_t>>::<class uhd::range_t,class std::<class uhd::range_t>>(class std::<class uhd::range_t>,class std::<class uhd::range_t> const &__ptr64 )__ptr64 
??0?$vector@Vrange_t@uhd@@V?$allocator@Vrange_t@uhd@@@std@@@std@@QEAA@V?$initializer_list@Vrange_t@uhd@@@1@AEBV?$allocator@Vrange_t@uhd@@@1@@Z
; public: __cdecl std::<class uhd::range_t,class std::<class uhd::range_t>>::<class uhd::range_t,class std::<class uhd::range_t>>(void)__ptr64 
??0?$vector@Vrange_t@uhd@@V?$allocator@Vrange_t@uhd@@@std@@@std@@QEAA@XZ
; public: __cdecl std::<class uhd::range_t,class std::<class uhd::range_t>>::<class uhd::range_t,class std::<class uhd::range_t>>(unsigned __int64,class std::<class uhd::range_t> const &__ptr64 )__ptr64 
??0?$vector@Vrange_t@uhd@@V?$allocator@Vrange_t@uhd@@@std@@@std@@QEAA@_KAEBV?$allocator@Vrange_t@uhd@@@1@@Z
; public: __cdecl std::<class uhd::range_t,class std::<class uhd::range_t>>::<class uhd::range_t,class std::<class uhd::range_t>>(unsigned __int64,class uhd::range_t const &__ptr64 ,class std::<class uhd::range_t> const &__ptr64 )__ptr64 
??0?$vector@Vrange_t@uhd@@V?$allocator@Vrange_t@uhd@@@std@@@std@@QEAA@_KAEBVrange_t@uhd@@AEBV?$allocator@Vrange_t@uhd@@@1@@Z
; public: __cdecl _uhd_static_fixture::_uhd_static_fixture(void(__cdecl *)(void),char const *__ptr64)__ptr64 
??0_uhd_static_fixture@@QEAA@P6AXXZPEBD@Z
; public: __cdecl uhd::access_error::access_error(,struct uhd::access_error *__ptr64 const)__ptr64 
??0access_error@uhd@@QEAA@$$QEAU01@@Z
; public: __cdecl uhd::access_error::access_error(struct uhd::access_error const &__ptr64 )__ptr64 
??0access_error@uhd@@QEAA@AEBU01@@Z
; public: __cdecl uhd::access_error::access_error(class std::<char,struct std::<char>,class std::<char>> const &__ptr64 )__ptr64 
??0access_error@uhd@@QEAA@AEBV?$basic_string@DU?$char_traits@D@std@@V?$allocator@D@2@@std@@@Z
; protected: __cdecl uhd::rfnoc::action_info::action_info(class std::<char,struct std::<char>,class std::<char>> const &__ptr64 ,class uhd::device_addr_t const &__ptr64 )__ptr64 
??0action_info@rfnoc@uhd@@IEAA@AEBV?$basic_string@DU?$char_traits@D@std@@V?$allocator@D@2@@std@@AEBVdevice_addr_t@2@@Z
; public: __cdecl uhd::rfnoc::action_info::action_info(struct uhd::rfnoc::action_info const &__ptr64 )__ptr64 
??0action_info@rfnoc@uhd@@QEAA@AEBU012@@Z
; public: __cdecl uhd::features::adc_self_calibration_iface::adc_self_calibration_iface(class uhd::features::adc_self_calibration_iface const &__ptr64 )__ptr64 
??0adc_self_calibration_iface@features@uhd@@QEAA@AEBV012@@Z
; public: __cdecl uhd::features::adc_self_calibration_iface::adc_self_calibration_iface(void)__ptr64 
??0adc_self_calibration_iface@features@uhd@@QEAA@XZ
; public: __cdecl uhd::rfnoc::addsub_block_control::addsub_block_control(class std::<struct uhd::rfnoc::noc_block_base::make_args_t,struct std::<struct uhd::rfnoc::noc_block_base::make_args_t>>)__ptr64 
??0addsub_block_control@rfnoc@uhd@@QEAA@V?$unique_ptr@Umake_args_t@noc_block_base@rfnoc@uhd@@U?$default_delete@Umake_args_t@noc_block_base@rfnoc@uhd@@@std@@@std@@@Z
; public: __cdecl uhd::analog_filter_base::analog_filter_base(,class uhd::analog_filter_base *__ptr64 const)__ptr64 
??0analog_filter_base@uhd@@QEAA@$$QEAV01@@Z
; public: __cdecl uhd::analog_filter_base::analog_filter_base(class uhd::analog_filter_base const &__ptr64 )__ptr64 
??0analog_filter_base@uhd@@QEAA@AEBV01@@Z
; public: __cdecl uhd::analog_filter_base::analog_filter_base(enum uhd::filter_info_base::filter_type,bool,unsigned __int64,class std::<char,struct std::<char>,class std::<char>> const &__ptr64 )__ptr64 
??0analog_filter_base@uhd@@QEAA@W4filter_type@filter_info_base@1@_N_KAEBV?$basic_string@DU?$char_traits@D@std@@V?$allocator@D@2@@std@@@Z
; public: __cdecl uhd::analog_filter_lp::analog_filter_lp(,class uhd::analog_filter_lp *__ptr64 const)__ptr64 
??0analog_filter_lp@uhd@@QEAA@$$QEAV01@@Z
; public: __cdecl uhd::analog_filter_lp::analog_filter_lp(class uhd::analog_filter_lp const &__ptr64 )__ptr64 
??0analog_filter_lp@uhd@@QEAA@AEBV01@@Z
; public: __cdecl uhd::analog_filter_lp::analog_filter_lp(enum uhd::filter_info_base::filter_type,bool,unsigned __int64,class std::<char,struct std::<char>,class std::<char>> const &__ptr64 ,double,double)__ptr64 
??0analog_filter_lp@uhd@@QEAA@W4filter_type@filter_info_base@1@_N_KAEBV?$basic_string@DU?$char_traits@D@std@@V?$allocator@D@2@@std@@NN@Z
; public: __cdecl uhd::rfnoc::rf_control::antenna_iface::antenna_iface(class uhd::rfnoc::rf_control::antenna_iface const &__ptr64 )__ptr64 
??0antenna_iface@rf_control@rfnoc@uhd@@QEAA@AEBV0123@@Z
; public: __cdecl uhd::rfnoc::rf_control::antenna_iface::antenna_iface(void)__ptr64 
??0antenna_iface@rf_control@rfnoc@uhd@@QEAA@XZ
; public: __cdecl uhd::rfnoc::rf_control::antenna_radio_control_mixin::antenna_radio_control_mixin(class uhd::rfnoc::rf_control::antenna_radio_control_mixin const &__ptr64 )__ptr64 
??0antenna_radio_control_mixin@rf_control@rfnoc@uhd@@QEAA@AEBV0123@@Z
; public: __cdecl uhd::rfnoc::rf_control::antenna_radio_control_mixin::antenna_radio_control_mixin(void)__ptr64 
??0antenna_radio_control_mixin@rf_control@rfnoc@uhd@@QEAA@XZ
; public: __cdecl uhd::assertion_error::assertion_error(,struct uhd::assertion_error *__ptr64 const)__ptr64 
??0assertion_error@uhd@@QEAA@$$QEAU01@@Z
; public: __cdecl uhd::assertion_error::assertion_error(struct uhd::assertion_error const &__ptr64 )__ptr64 
??0assertion_error@uhd@@QEAA@AEBU01@@Z
; public: __cdecl uhd::assertion_error::assertion_error(class std::<char,struct std::<char>,class std::<char>> const &__ptr64 )__ptr64 
??0assertion_error@uhd@@QEAA@AEBV?$basic_string@DU?$char_traits@D@std@@V?$allocator@D@2@@std@@@Z
; public: __cdecl uhd::async_metadata_t::async_metadata_t(void)__ptr64 
??0async_metadata_t@uhd@@QEAA@XZ
; public: __cdecl b200_iface::b200_iface(void)__ptr64 
??0b200_iface@@QEAA@XZ
; public: __cdecl uhd::rfnoc::block_control::block_control(class std::<struct uhd::rfnoc::noc_block_base::make_args_t,struct std::<struct uhd::rfnoc::noc_block_base::make_args_t>>)__ptr64 
??0block_control@rfnoc@uhd@@QEAA@V?$unique_ptr@Umake_args_t@noc_block_base@rfnoc@uhd@@U?$default_delete@Umake_args_t@noc_block_base@rfnoc@uhd@@@std@@@std@@@Z
; public: __cdecl uhd::rfnoc::block_id_t::block_id_t(,class uhd::rfnoc::block_id_t *__ptr64 const)__ptr64 
??0block_id_t@rfnoc@uhd@@QEAA@$$QEAV012@@Z
; public: __cdecl uhd::rfnoc::block_id_t::block_id_t(class uhd::rfnoc::block_id_t const &__ptr64 )__ptr64 
??0block_id_t@rfnoc@uhd@@QEAA@AEBV012@@Z
; public: __cdecl uhd::rfnoc::block_id_t::block_id_t(class std::<char,struct std::<char>,class std::<char>> const &__ptr64 )__ptr64 
??0block_id_t@rfnoc@uhd@@QEAA@AEBV?$basic_string@DU?$char_traits@D@std@@V?$allocator@D@2@@std@@@Z
; public: __cdecl uhd::rfnoc::block_id_t::block_id_t(void)__ptr64 
??0block_id_t@rfnoc@uhd@@QEAA@XZ
; public: __cdecl uhd::rfnoc::block_id_t::block_id_t(unsigned __int64,class std::<char,struct std::<char>,class std::<char>> const &__ptr64 ,unsigned __int64)__ptr64 
??0block_id_t@rfnoc@uhd@@QEAA@_KAEBV?$basic_string@DU?$char_traits@D@std@@V?$allocator@D@2@@std@@0@Z
; public: __cdecl uhd::transport::buffer_pool::buffer_pool(void)__ptr64 
??0buffer_pool@transport@uhd@@QEAA@XZ
; public: __cdecl uhd::utils::chdr::chdr_packet::chdr_packet(,class uhd::utils::chdr::chdr_packet *__ptr64 const)__ptr64 
??0chdr_packet@chdr@utils@uhd@@QEAA@$$QEAV0123@@Z
; public: __cdecl uhd::utils::chdr::chdr_packet::chdr_packet(class uhd::utils::chdr::chdr_packet const &__ptr64 )__ptr64 
??0chdr_packet@chdr@utils@uhd@@QEAA@AEBV0123@@Z
; public: __cdecl uhd::utils::chdr::chdr_packet::chdr_packet(enum uhd::rfnoc::chdr_w_t,class uhd::rfnoc::chdr::chdr_header,class std::<unsigned char,class std::<unsigned char>>,class boost::<unsigned __int64>,class std::<unsigned __int64,class std::<unsigned __int64>>)__ptr64 
??0chdr_packet@chdr@utils@uhd@@QEAA@W4chdr_w_t@rfnoc@3@Vchdr_header@153@V?$vector@EV?$allocator@E@std@@@std@@V?$optional@_K@boost@@V?$vector@_KV?$allocator@_K@std@@@8@@Z
; public: __cdecl uhd::usrp::cal::container::container(class uhd::usrp::cal::container const &__ptr64 )__ptr64 
??0container@cal@usrp@uhd@@QEAA@AEBV0123@@Z
; public: __cdecl uhd::usrp::cal::container::container(void)__ptr64 
??0container@cal@usrp@uhd@@QEAA@XZ
; public: __cdecl uhd::rfnoc::chdr::ctrl_payload::ctrl_payload(,class uhd::rfnoc::chdr::ctrl_payload *__ptr64 const)__ptr64 
??0ctrl_payload@chdr@rfnoc@uhd@@QEAA@$$QEAV0123@@Z
; public: __cdecl uhd::rfnoc::chdr::ctrl_payload::ctrl_payload(class uhd::rfnoc::chdr::ctrl_payload const &__ptr64 )__ptr64 
??0ctrl_payload@chdr@rfnoc@uhd@@QEAA@AEBV0123@@Z
; public: __cdecl uhd::rfnoc::chdr::ctrl_payload::ctrl_payload(void)__ptr64 
??0ctrl_payload@chdr@rfnoc@uhd@@QEAA@XZ
; public: __cdecl uhd::usrp::dboard_base::dboard_base(void *__ptr64)__ptr64 
??0dboard_base@usrp@uhd@@QEAA@PEAX@Z
; public: __cdecl uhd::usrp::dboard_eeprom_t::dboard_eeprom_t(,struct uhd::usrp::dboard_eeprom_t *__ptr64 const)__ptr64 
??0dboard_eeprom_t@usrp@uhd@@QEAA@$$QEAU012@@Z
; public: __cdecl uhd::usrp::dboard_eeprom_t::dboard_eeprom_t(struct uhd::usrp::dboard_eeprom_t const &__ptr64 )__ptr64 
??0dboard_eeprom_t@usrp@uhd@@QEAA@AEBU012@@Z
; public: __cdecl uhd::usrp::dboard_eeprom_t::dboard_eeprom_t(void)__ptr64 
??0dboard_eeprom_t@usrp@uhd@@QEAA@XZ
; public: __cdecl uhd::usrp::dboard_id_t::dboard_id_t(unsigned short)__ptr64 
??0dboard_id_t@usrp@uhd@@QEAA@G@Z
; public: __cdecl uhd::usrp::dboard_iface::dboard_iface(class uhd::usrp::dboard_iface const &__ptr64 )__ptr64 
??0dboard_iface@usrp@uhd@@QEAA@AEBV012@@Z
; public: __cdecl uhd::usrp::dboard_iface::dboard_iface(void)__ptr64 
??0dboard_iface@usrp@uhd@@QEAA@XZ
; public: __cdecl uhd::usrp::dboard_manager::dboard_manager(void)__ptr64 
??0dboard_manager@usrp@uhd@@QEAA@XZ
; public: __cdecl uhd::rfnoc::ddc_block_control::ddc_block_control(class std::<struct uhd::rfnoc::noc_block_base::make_args_t,struct std::<struct uhd::rfnoc::noc_block_base::make_args_t>>)__ptr64 
??0ddc_block_control@rfnoc@uhd@@QEAA@V?$unique_ptr@Umake_args_t@noc_block_base@rfnoc@uhd@@U?$default_delete@Umake_args_t@noc_block_base@rfnoc@uhd@@@std@@@std@@@Z
; public: __cdecl uhd::device::device(void)__ptr64 
??0device@uhd@@QEAA@XZ
; public: __cdecl uhd::device_addr_t::device_addr_t(,class uhd::device_addr_t *__ptr64 const)__ptr64 
??0device_addr_t@uhd@@QEAA@$$QEAV01@@Z
; public: __cdecl uhd::device_addr_t::device_addr_t(class uhd::device_addr_t const &__ptr64 )__ptr64 
??0device_addr_t@uhd@@QEAA@AEBV01@@Z
; public: __cdecl uhd::device_addr_t::device_addr_t(class std::<char,struct std::<char>,class std::<char>> const &__ptr64 )__ptr64 
??0device_addr_t@uhd@@QEAA@AEBV?$basic_string@DU?$char_traits@D@std@@V?$allocator@D@2@@std@@@Z
; public: __cdecl uhd::device_addr_t::device_addr_t(class std::<class std::<char,struct std::<char>,class std::<char>>,class std::<char,struct std::<char>,class std::<char>>,struct std::<class std::<char,struct std::<char>,class std::<char>>>,class std::<struct std::<class std::<char,struct std::<char>,class std::<char>> const,class std::<char,struct std::<char>,class std::<char>>>>> const &__ptr64 )__ptr64 
??0device_addr_t@uhd@@QEAA@AEBV?$map@V?$basic_string@DU?$char_traits@D@std@@V?$allocator@D@2@@std@@V12@U?$less@V?$basic_string@DU?$char_traits@D@std@@V?$allocator@D@2@@std@@@2@V?$allocator@U?$pair@$$CBV?$basic_string@DU?$char_traits@D@std@@V?$allocator@D@2@@std@@V12@@std@@@2@@std@@@Z
; public: __cdecl uhd::device_addr_t::device_addr_t(char const *__ptr64)__ptr64 
??0device_addr_t@uhd@@QEAA@PEBD@Z
; public: __cdecl uhd::features::discoverable_feature::discoverable_feature(class uhd::features::discoverable_feature const &__ptr64 )__ptr64 
??0discoverable_feature@features@uhd@@QEAA@AEBV012@@Z
; public: __cdecl uhd::features::discoverable_feature::discoverable_feature(void)__ptr64 
??0discoverable_feature@features@uhd@@QEAA@XZ
; public: __cdecl uhd::features::discoverable_feature_getter_iface::discoverable_feature_getter_iface(class uhd::features::discoverable_feature_getter_iface const &__ptr64 )__ptr64 
??0discoverable_feature_getter_iface@features@uhd@@QEAA@AEBV012@@Z
; public: __cdecl uhd::features::discoverable_feature_getter_iface::discoverable_feature_getter_iface(void)__ptr64 
??0discoverable_feature_getter_iface@features@uhd@@QEAA@XZ
; public: __cdecl uhd::rfnoc::dmafifo_block_control::dmafifo_block_control(class std::<struct uhd::rfnoc::noc_block_base::make_args_t,struct std::<struct uhd::rfnoc::noc_block_base::make_args_t>>)__ptr64 
??0dmafifo_block_control@rfnoc@uhd@@QEAA@V?$unique_ptr@Umake_args_t@noc_block_base@rfnoc@uhd@@U?$default_delete@Umake_args_t@noc_block_base@rfnoc@uhd@@@std@@@std@@@Z
; public: __cdecl uhd::rfnoc::duc_block_control::duc_block_control(class std::<struct uhd::rfnoc::noc_block_base::make_args_t,struct std::<struct uhd::rfnoc::noc_block_base::make_args_t>>)__ptr64 
??0duc_block_control@rfnoc@uhd@@QEAA@V?$unique_ptr@Umake_args_t@noc_block_base@rfnoc@uhd@@U?$default_delete@Umake_args_t@noc_block_base@rfnoc@uhd@@@std@@@std@@@Z
; public: __cdecl uhd::rfnoc::rf_control::enumerated_antenna::enumerated_antenna(class uhd::rfnoc::rf_control::enumerated_antenna const &__ptr64 )__ptr64 
??0enumerated_antenna@rf_control@rfnoc@uhd@@QEAA@AEBV0123@@Z
; public: __cdecl uhd::rfnoc::rf_control::enumerated_antenna::enumerated_antenna(class std::<class uhd::property_tree>,class std::<struct uhd::fs_path __cdecl(unsigned __int64)>,class std::<class std::<char,struct std::<char>,class std::<char>>,class std::<class std::<char,struct std::<char>,class std::<char>>>> const &__ptr64 ,class std::<class std::<char,struct std::<char>,class std::<char>>,class std::<char,struct std::<char>,class std::<char>>,struct std::<class std::<char,struct std::<char>,class std::<char>>>,struct std::<class std::<char,struct std::<char>,class std::<char>>>,class std::<struct std::<class std::<char,struct std::<char>,class std::<char>> const,class std::<char,struct std::<char>,class std::<char>>>>> const &__ptr64 )__ptr64 
??0enumerated_antenna@rf_control@rfnoc@uhd@@QEAA@V?$shared_ptr@Vproperty_tree@uhd@@@std@@V?$function@$$A6A?AUfs_path@uhd@@_K@Z@5@AEBV?$vector@V?$basic_string@DU?$char_traits@D@std@@V?$allocator@D@2@@std@@V?$allocator@V?$basic_string@DU?$char_traits@D@std@@V?$allocator@D@2@@std@@@2@@5@AEBV?$unordered_map@V?$basic_string@DU?$char_traits@D@std@@V?$allocator@D@2@@std@@V12@U?$hash@V?$basic_string@DU?$char_traits@D@std@@V?$allocator@D@2@@std@@@2@U?$equal_to@V?$basic_string@DU?$char_traits@D@std@@V?$allocator@D@2@@std@@@2@V?$allocator@U?$pair@$$CBV?$basic_string@DU?$char_traits@D@std@@V?$allocator@D@2@@std@@V12@@std@@@2@@5@@Z
; public: __cdecl uhd::environment_error::environment_error(,struct uhd::environment_error *__ptr64 const)__ptr64 
??0environment_error@uhd@@QEAA@$$QEAU01@@Z
; public: __cdecl uhd::environment_error::environment_error(struct uhd::environment_error const &__ptr64 )__ptr64 
??0environment_error@uhd@@QEAA@AEBU01@@Z
; public: __cdecl uhd::environment_error::environment_error(class std::<char,struct std::<char>,class std::<char>> const &__ptr64 )__ptr64 
??0environment_error@uhd@@QEAA@AEBV?$basic_string@DU?$char_traits@D@std@@V?$allocator@D@2@@std@@@Z
; public: __cdecl uhd::exception::exception(,struct uhd::exception *__ptr64 const)__ptr64 
??0exception@uhd@@QEAA@$$QEAU01@@Z
; public: __cdecl uhd::exception::exception(struct uhd::exception const &__ptr64 )__ptr64 
??0exception@uhd@@QEAA@AEBU01@@Z
; public: __cdecl uhd::exception::exception(class std::<char,struct std::<char>,class std::<char>> const &__ptr64 )__ptr64 
??0exception@uhd@@QEAA@AEBV?$basic_string@DU?$char_traits@D@std@@V?$allocator@D@2@@std@@@Z
; public: __cdecl uhd::experts::expert_container::expert_container(void)__ptr64 
??0expert_container@experts@uhd@@QEAA@XZ
; public: __cdecl uhd::extension::extension::extension(void)__ptr64 
??0extension@0uhd@@QEAA@XZ
; public: __cdecl uhd::usrp::fe_connection_t::fe_connection_t(class std::<char,struct std::<char>,class std::<char>> const &__ptr64 ,double)__ptr64 
??0fe_connection_t@usrp@uhd@@QEAA@AEBV?$basic_string@DU?$char_traits@D@std@@V?$allocator@D@2@@std@@N@Z
; public: __cdecl uhd::usrp::fe_connection_t::fe_connection_t(enum uhd::usrp::fe_connection_t::sampling_t,bool,bool,bool,double)__ptr64 
??0fe_connection_t@usrp@uhd@@QEAA@W4sampling_t@012@_N11N@Z
; public: __cdecl uhd::rfnoc::fft_block_control::fft_block_control(class std::<struct uhd::rfnoc::noc_block_base::make_args_t,struct std::<struct uhd::rfnoc::noc_block_base::make_args_t>>)__ptr64 
??0fft_block_control@rfnoc@uhd@@QEAA@V?$unique_ptr@Umake_args_t@noc_block_base@rfnoc@uhd@@U?$default_delete@Umake_args_t@noc_block_base@rfnoc@uhd@@@std@@@std@@@Z
; public: __cdecl uhd::filter_info_base::filter_info_base(class uhd::filter_info_base const &__ptr64 )__ptr64 
??0filter_info_base@uhd@@QEAA@AEBV01@@Z
; public: __cdecl uhd::filter_info_base::filter_info_base(enum uhd::filter_info_base::filter_type,bool,unsigned __int64)__ptr64 
??0filter_info_base@uhd@@QEAA@W4filter_type@01@_N_K@Z
; public: __cdecl uhd::rfnoc::fir_filter_block_control::fir_filter_block_control(class std::<struct uhd::rfnoc::noc_block_base::make_args_t,struct std::<struct uhd::rfnoc::noc_block_base::make_args_t>>)__ptr64 
??0fir_filter_block_control@rfnoc@uhd@@QEAA@V?$unique_ptr@Umake_args_t@noc_block_base@rfnoc@uhd@@U?$default_delete@Umake_args_t@noc_block_base@rfnoc@uhd@@@std@@@std@@@Z
; public: __cdecl uhd::rfnoc::fosphor_block_control::fosphor_block_control(class std::<struct uhd::rfnoc::noc_block_base::make_args_t,struct std::<struct uhd::rfnoc::noc_block_base::make_args_t>>)__ptr64 
??0fosphor_block_control@rfnoc@uhd@@QEAA@V?$unique_ptr@Umake_args_t@noc_block_base@rfnoc@uhd@@U?$default_delete@Umake_args_t@noc_block_base@rfnoc@uhd@@@std@@@std@@@Z
; public: __cdecl uhd::fs_path::fs_path(class std::<char,struct std::<char>,class std::<char>> const &__ptr64 )__ptr64 
??0fs_path@uhd@@QEAA@AEBV?$basic_string@DU?$char_traits@D@std@@V?$allocator@D@2@@std@@@Z
; public: __cdecl uhd::fs_path::fs_path(char const *__ptr64)__ptr64 
??0fs_path@uhd@@QEAA@PEBD@Z
; public: __cdecl uhd::fs_path::fs_path(void)__ptr64 
??0fs_path@uhd@@QEAA@XZ
; public: __cdecl uhd::gain_fcns_t::gain_fcns_t(,struct uhd::gain_fcns_t *__ptr64 const)__ptr64 
??0gain_fcns_t@uhd@@QEAA@$$QEAU01@@Z
; public: __cdecl uhd::gain_fcns_t::gain_fcns_t(struct uhd::gain_fcns_t const &__ptr64 )__ptr64 
??0gain_fcns_t@uhd@@QEAA@AEBU01@@Z
; public: __cdecl uhd::gain_fcns_t::gain_fcns_t(void)__ptr64 
??0gain_fcns_t@uhd@@QEAA@XZ
; public: __cdecl uhd::gain_group::gain_group(void)__ptr64 
??0gain_group@uhd@@QEAA@XZ
; public: __cdecl uhd::features::gpio_power_iface::gpio_power_iface(class uhd::features::gpio_power_iface const &__ptr64 )__ptr64 
??0gpio_power_iface@features@uhd@@QEAA@AEBV012@@Z
; public: __cdecl uhd::features::gpio_power_iface::gpio_power_iface(void)__ptr64 
??0gpio_power_iface@features@uhd@@QEAA@XZ
; public: __cdecl uhd::gps_ctrl::gps_ctrl(void)__ptr64 
??0gps_ctrl@uhd@@QEAA@XZ
; public: __cdecl uhd::rfnoc::graph_edge_t::graph_edge_t(,struct uhd::rfnoc::graph_edge_t *__ptr64 const)__ptr64 
??0graph_edge_t@rfnoc@uhd@@QEAA@$$QEAU012@@Z
; public: __cdecl uhd::rfnoc::graph_edge_t::graph_edge_t(struct uhd::rfnoc::graph_edge_t const &__ptr64 )__ptr64 
??0graph_edge_t@rfnoc@uhd@@QEAA@AEBU012@@Z
; public: __cdecl uhd::rfnoc::graph_edge_t::graph_edge_t(void)__ptr64 
??0graph_edge_t@rfnoc@uhd@@QEAA@XZ
; public: __cdecl uhd::rfnoc::graph_edge_t::graph_edge_t(unsigned __int64,unsigned __int64,enum uhd::rfnoc::graph_edge_t::edge_t,bool)__ptr64 
??0graph_edge_t@rfnoc@uhd@@QEAA@_K0W4edge_t@012@_N@Z
; public: __cdecl uhd::i2c_iface::i2c_iface(class uhd::i2c_iface const &__ptr64 )__ptr64 
??0i2c_iface@uhd@@QEAA@AEBV01@@Z
; public: __cdecl uhd::i2c_iface::i2c_iface(void)__ptr64 
??0i2c_iface@uhd@@QEAA@XZ
; public: __cdecl uhd::convert::id_type::id_type(,struct uhd::convert::id_type *__ptr64 const)__ptr64 
??0id_type@convert@uhd@@QEAA@$$QEAU012@@Z
; public: __cdecl uhd::convert::id_type::id_type(struct uhd::convert::id_type const &__ptr64 )__ptr64 
??0id_type@convert@uhd@@QEAA@AEBU012@@Z
; public: __cdecl uhd::convert::id_type::id_type(void)__ptr64 
??0id_type@convert@uhd@@QEAA@XZ
; public: __cdecl uhd::transport::if_addrs_t::if_addrs_t(,struct uhd::transport::if_addrs_t *__ptr64 const)__ptr64 
??0if_addrs_t@transport@uhd@@QEAA@$$QEAU012@@Z
; public: __cdecl uhd::transport::if_addrs_t::if_addrs_t(struct uhd::transport::if_addrs_t const &__ptr64 )__ptr64 
??0if_addrs_t@transport@uhd@@QEAA@AEBU012@@Z
; public: __cdecl uhd::transport::if_addrs_t::if_addrs_t(void)__ptr64 
??0if_addrs_t@transport@uhd@@QEAA@XZ
; public: __cdecl uhd::transport::vrt::if_packet_info_t::if_packet_info_t(void)__ptr64 
??0if_packet_info_t@vrt@transport@uhd@@QEAA@XZ
; public: __cdecl uhd::index_error::index_error(,struct uhd::index_error *__ptr64 const)__ptr64 
??0index_error@uhd@@QEAA@$$QEAU01@@Z
; public: __cdecl uhd::index_error::index_error(struct uhd::index_error const &__ptr64 )__ptr64 
??0index_error@uhd@@QEAA@AEBU01@@Z
; public: __cdecl uhd::index_error::index_error(class std::<char,struct std::<char>,class std::<char>> const &__ptr64 )__ptr64 
??0index_error@uhd@@QEAA@AEBV?$basic_string@DU?$char_traits@D@std@@V?$allocator@D@2@@std@@@Z
; public: __cdecl uhd::features::internal_sync_iface::internal_sync_iface(class uhd::features::internal_sync_iface const &__ptr64 )__ptr64 
??0internal_sync_iface@features@uhd@@QEAA@AEBV012@@Z
; public: __cdecl uhd::features::internal_sync_iface::internal_sync_iface(void)__ptr64 
??0internal_sync_iface@features@uhd@@QEAA@XZ
; public: __cdecl uhd::io_error::io_error(,struct uhd::io_error *__ptr64 const)__ptr64 
??0io_error@uhd@@QEAA@$$QEAU01@@Z
; public: __cdecl uhd::io_error::io_error(struct uhd::io_error const &__ptr64 )__ptr64 
??0io_error@uhd@@QEAA@AEBU01@@Z
; public: __cdecl uhd::io_error::io_error(class std::<char,struct std::<char>,class std::<char>> const &__ptr64 )__ptr64 
??0io_error@uhd@@QEAA@AEBV?$basic_string@DU?$char_traits@D@std@@V?$allocator@D@2@@std@@@Z
; public: __cdecl uhd::usrp::cal::iq_cal::iq_cal(,class uhd::usrp::cal::iq_cal *__ptr64 const)__ptr64 
??0iq_cal@cal@usrp@uhd@@QEAA@$$QEAV0123@@Z
; public: __cdecl uhd::usrp::cal::iq_cal::iq_cal(class uhd::usrp::cal::iq_cal const &__ptr64 )__ptr64 
??0iq_cal@cal@usrp@uhd@@QEAA@AEBV0123@@Z
; public: __cdecl uhd::usrp::cal::iq_cal::iq_cal(void)__ptr64 
??0iq_cal@cal@usrp@uhd@@QEAA@XZ
; public: __cdecl uhd::rfnoc::keep_one_in_n_block_control::keep_one_in_n_block_control(class std::<struct uhd::rfnoc::noc_block_base::make_args_t,struct std::<struct uhd::rfnoc::noc_block_base::make_args_t>>)__ptr64 
??0keep_one_in_n_block_control@rfnoc@uhd@@QEAA@V?$unique_ptr@Umake_args_t@noc_block_base@rfnoc@uhd@@U?$default_delete@Umake_args_t@noc_block_base@rfnoc@uhd@@@std@@@std@@@Z
; public: __cdecl uhd::key_error::key_error(,struct uhd::key_error *__ptr64 const)__ptr64 
??0key_error@uhd@@QEAA@$$QEAU01@@Z
; public: __cdecl uhd::key_error::key_error(struct uhd::key_error const &__ptr64 )__ptr64 
??0key_error@uhd@@QEAA@AEBU01@@Z
; public: __cdecl uhd::key_error::key_error(class std::<char,struct std::<char>,class std::<char>> const &__ptr64 )__ptr64 
??0key_error@uhd@@QEAA@AEBV?$basic_string@DU?$char_traits@D@std@@V?$allocator@D@2@@std@@@Z
; public: __cdecl uhd::rfnoc::lc_block_control::lc_block_control(class std::<struct uhd::rfnoc::noc_block_base::make_args_t,struct std::<struct uhd::rfnoc::noc_block_base::make_args_t>>)__ptr64 
??0lc_block_control@rfnoc@uhd@@QEAA@V?$unique_ptr@Umake_args_t@noc_block_base@rfnoc@uhd@@U?$default_delete@Umake_args_t@noc_block_base@rfnoc@uhd@@@std@@@std@@@Z
; public: __cdecl uhd::_log::log::log(enum uhd::log::severity_level,class std::<char,struct std::<char>,class std::<char>> const &__ptr64 ,unsigned int,class std::<char,struct std::<char>,class std::<char>> const &__ptr64 ,class std::thread::id)__ptr64 
??0log@_log@uhd@@QEAA@W4severity_level@02@AEBV?$basic_string@DU?$char_traits@D@std@@V?$allocator@D@2@@std@@I1Vid@thread@5@@Z
; public: __cdecl uhd::log::logging_info::logging_info(,struct uhd::log::logging_info *__ptr64 const)__ptr64 
??0logging_info@log@uhd@@QEAA@$$QEAU012@@Z
; public: __cdecl uhd::log::logging_info::logging_info(struct uhd::log::logging_info const &__ptr64 )__ptr64 
??0logging_info@log@uhd@@QEAA@AEBU012@@Z
; public: __cdecl uhd::log::logging_info::logging_info(class boost::posix_time::ptime const &__ptr64 ,enum uhd::log::severity_level const &__ptr64 ,class std::<char,struct std::<char>,class std::<char>> const &__ptr64 ,unsigned int const &__ptr64 ,class std::<char,struct std::<char>,class std::<char>> const &__ptr64 ,class std::thread::id const &__ptr64 )__ptr64 
??0logging_info@log@uhd@@QEAA@AEBVptime@posix_time@boost@@AEBW4severity_level@12@AEBV?$basic_string@DU?$char_traits@D@std@@V?$allocator@D@2@@std@@AEBI2AEBVid@thread@8@@Z
; public: __cdecl uhd::log::logging_info::logging_info(void)__ptr64 
??0logging_info@log@uhd@@QEAA@XZ
; public: __cdecl uhd::rfnoc::logpwr_block_control::logpwr_block_control(class std::<struct uhd::rfnoc::noc_block_base::make_args_t,struct std::<struct uhd::rfnoc::noc_block_base::make_args_t>>)__ptr64 
??0logpwr_block_control@rfnoc@uhd@@QEAA@V?$unique_ptr@Umake_args_t@noc_block_base@rfnoc@uhd@@U?$default_delete@Umake_args_t@noc_block_base@rfnoc@uhd@@@std@@@std@@@Z
; public: __cdecl uhd::lookup_error::lookup_error(,struct uhd::lookup_error *__ptr64 const)__ptr64 
??0lookup_error@uhd@@QEAA@$$QEAU01@@Z
; public: __cdecl uhd::lookup_error::lookup_error(struct uhd::lookup_error const &__ptr64 )__ptr64 
??0lookup_error@uhd@@QEAA@AEBU01@@Z
; public: __cdecl uhd::lookup_error::lookup_error(class std::<char,struct std::<char>,class std::<char>> const &__ptr64 )__ptr64 
??0lookup_error@uhd@@QEAA@AEBV?$basic_string@DU?$char_traits@D@std@@V?$allocator@D@2@@std@@@Z
; private: __cdecl uhd::mac_addr_t::mac_addr_t(class std::<unsigned char,class std::<unsigned char>> const &__ptr64 )__ptr64 
??0mac_addr_t@uhd@@AEAA@AEBV?$vector@EV?$allocator@E@std@@@std@@@Z
; public: __cdecl uhd::mac_addr_t::mac_addr_t(,class uhd::mac_addr_t *__ptr64 const)__ptr64 
??0mac_addr_t@uhd@@QEAA@$$QEAV01@@Z
; public: __cdecl uhd::mac_addr_t::mac_addr_t(class uhd::mac_addr_t const &__ptr64 )__ptr64 
??0mac_addr_t@uhd@@QEAA@AEBV01@@Z
; public: __cdecl uhd::transport::managed_buffer::managed_buffer(void)__ptr64 
??0managed_buffer@transport@uhd@@QEAA@XZ
; public: __cdecl uhd::transport::managed_recv_buffer::managed_recv_buffer(void)__ptr64 
??0managed_recv_buffer@transport@uhd@@QEAA@XZ
; public: __cdecl uhd::transport::managed_send_buffer::managed_send_buffer(void)__ptr64 
??0managed_send_buffer@transport@uhd@@QEAA@XZ
; public: __cdecl uhd::rfnoc::mb_controller::mb_controller(void)__ptr64 
??0mb_controller@rfnoc@uhd@@QEAA@XZ
; public: __cdecl uhd::memmap32_iface::memmap32_iface(,struct uhd::memmap32_iface *__ptr64 const)__ptr64 
??0memmap32_iface@uhd@@QEAA@$$QEAU01@@Z
; public: __cdecl uhd::memmap32_iface::memmap32_iface(struct uhd::memmap32_iface const &__ptr64 )__ptr64 
??0memmap32_iface@uhd@@QEAA@AEBU01@@Z
; public: __cdecl uhd::memmap32_iface::memmap32_iface(void)__ptr64 
??0memmap32_iface@uhd@@QEAA@XZ
; public: __cdecl uhd::memmap32_iface_timed::memmap32_iface_timed(,struct uhd::memmap32_iface_timed *__ptr64 const)__ptr64 
??0memmap32_iface_timed@uhd@@QEAA@$$QEAU01@@Z
; public: __cdecl uhd::memmap32_iface_timed::memmap32_iface_timed(struct uhd::memmap32_iface_timed const &__ptr64 )__ptr64 
??0memmap32_iface_timed@uhd@@QEAA@AEBU01@@Z
; public: __cdecl uhd::memmap32_iface_timed::memmap32_iface_timed(void)__ptr64 
??0memmap32_iface_timed@uhd@@QEAA@XZ
; public: __cdecl uhd::meta_range_t::meta_range_t(,struct uhd::meta_range_t *__ptr64 const)__ptr64 
??0meta_range_t@uhd@@QEAA@$$QEAU01@@Z
; public: __cdecl uhd::meta_range_t::meta_range_t(struct uhd::meta_range_t const &__ptr64 )__ptr64 
??0meta_range_t@uhd@@QEAA@AEBU01@@Z
; public: __cdecl uhd::meta_range_t::meta_range_t(double,double,double)__ptr64 
??0meta_range_t@uhd@@QEAA@NNN@Z
; public: __cdecl uhd::meta_range_t::meta_range_t(void)__ptr64 
??0meta_range_t@uhd@@QEAA@XZ
; public: __cdecl uhd::rfnoc::chdr::mgmt_hop_t::mgmt_hop_t(class uhd::rfnoc::chdr::mgmt_hop_t const &__ptr64 )__ptr64 
??0mgmt_hop_t@chdr@rfnoc@uhd@@QEAA@AEBV0123@@Z
; public: __cdecl uhd::rfnoc::chdr::mgmt_hop_t::mgmt_hop_t(void)__ptr64 
??0mgmt_hop_t@chdr@rfnoc@uhd@@QEAA@XZ
; public: __cdecl uhd::rfnoc::chdr::mgmt_op_t::mgmt_op_t(enum uhd::rfnoc::chdr::mgmt_op_t::op_code_t,unsigned __int64,unsigned char)__ptr64 
??0mgmt_op_t@chdr@rfnoc@uhd@@QEAA@W4op_code_t@0123@_KE@Z
; public: __cdecl uhd::rfnoc::chdr::mgmt_payload::mgmt_payload(,class uhd::rfnoc::chdr::mgmt_payload *__ptr64 const)__ptr64 
??0mgmt_payload@chdr@rfnoc@uhd@@QEAA@$$QEAV0123@@Z
; public: __cdecl uhd::rfnoc::chdr::mgmt_payload::mgmt_payload(class uhd::rfnoc::chdr::mgmt_payload const &__ptr64 )__ptr64 
??0mgmt_payload@chdr@rfnoc@uhd@@QEAA@AEBV0123@@Z
; public: __cdecl uhd::rfnoc::chdr::mgmt_payload::mgmt_payload(void)__ptr64 
??0mgmt_payload@chdr@rfnoc@uhd@@QEAA@XZ
; public: __cdecl uhd::rfnoc::mock_block_container::mock_block_container(,struct uhd::rfnoc::mock_block_container *__ptr64 const)__ptr64 
??0mock_block_container@rfnoc@uhd@@QEAA@$$QEAU012@@Z
; public: __cdecl uhd::rfnoc::mock_block_container::mock_block_container(void)__ptr64 
??0mock_block_container@rfnoc@uhd@@QEAA@XZ
; public: __cdecl uhd::rfnoc::mock_reg_iface_t::mock_reg_iface_t(class uhd::rfnoc::mock_reg_iface_t const &__ptr64 )__ptr64 
??0mock_reg_iface_t@rfnoc@uhd@@QEAA@AEBV012@@Z
; public: __cdecl uhd::rfnoc::mock_reg_iface_t::mock_reg_iface_t(void)__ptr64 
??0mock_reg_iface_t@rfnoc@uhd@@QEAA@XZ
; public: __cdecl uhd::rfnoc::moving_average_block_control::moving_average_block_control(class std::<struct uhd::rfnoc::noc_block_base::make_args_t,struct std::<struct uhd::rfnoc::noc_block_base::make_args_t>>)__ptr64 
??0moving_average_block_control@rfnoc@uhd@@QEAA@V?$unique_ptr@Umake_args_t@noc_block_base@rfnoc@uhd@@U?$default_delete@Umake_args_t@noc_block_base@rfnoc@uhd@@@std@@@std@@@Z
; public: __cdecl uhd::msg_task::msg_task(void)__ptr64 
??0msg_task@uhd@@QEAA@XZ
; public: __cdecl uhd::usrp::multi_usrp::multi_usrp(void)__ptr64 
??0multi_usrp@usrp@uhd@@QEAA@XZ
; public: __cdecl uhd::usrp_clock::multi_usrp_clock::multi_usrp_clock(void)__ptr64 
??0multi_usrp_clock@usrp_clock@uhd@@QEAA@XZ
; public: __cdecl uhd::rfnoc::rf_control::nameless_gain_mixin::nameless_gain_mixin(class uhd::rfnoc::rf_control::nameless_gain_mixin const &__ptr64 )__ptr64 
??0nameless_gain_mixin@rf_control@rfnoc@uhd@@QEAA@AEBV0123@@Z
; public: __cdecl uhd::rfnoc::rf_control::nameless_gain_mixin::nameless_gain_mixin(class std::<class std::<char,struct std::<char>,class std::<char>> __cdecl(enum uhd::direction_t,unsigned __int64)>)__ptr64 
??0nameless_gain_mixin@rf_control@rfnoc@uhd@@QEAA@V?$function@$$A6A?AV?$basic_string@DU?$char_traits@D@std@@V?$allocator@D@2@@std@@W4direction_t@uhd@@_K@Z@std@@@Z
; public: __cdecl uhd::narrowing_error::narrowing_error(,struct uhd::narrowing_error *__ptr64 const)__ptr64 
??0narrowing_error@uhd@@QEAA@$$QEAU01@@Z
; public: __cdecl uhd::narrowing_error::narrowing_error(struct uhd::narrowing_error const &__ptr64 )__ptr64 
??0narrowing_error@uhd@@QEAA@AEBU01@@Z
; public: __cdecl uhd::narrowing_error::narrowing_error(class std::<char,struct std::<char>,class std::<char>> const &__ptr64 )__ptr64 
??0narrowing_error@uhd@@QEAA@AEBV?$basic_string@DU?$char_traits@D@std@@V?$allocator@D@2@@std@@@Z
; public: __cdecl uhd::niusrprio::nifpga_lvbitx::nifpga_lvbitx(class uhd::niusrprio::nifpga_lvbitx const &__ptr64 )__ptr64 
??0nifpga_lvbitx@niusrprio@uhd@@QEAA@AEBV012@@Z
; public: __cdecl uhd::niusrprio::nifpga_lvbitx::nifpga_lvbitx(void)__ptr64 
??0nifpga_lvbitx@niusrprio@uhd@@QEAA@XZ
; public: __cdecl uhd::niusrprio::niriok_proxy::niriok_proxy(void)__ptr64 
??0niriok_proxy@niusrprio@uhd@@QEAA@XZ
; public: __cdecl uhd::niusrprio::niriok_proxy_impl_v1::niriok_proxy_impl_v1(void)__ptr64 
??0niriok_proxy_impl_v1@niusrprio@uhd@@QEAA@XZ
; public: __cdecl uhd::niusrprio::niriok_proxy_impl_v2::niriok_proxy_impl_v2(void)__ptr64 
??0niriok_proxy_impl_v2@niusrprio@uhd@@QEAA@XZ
; public: __cdecl uhd::niusrprio::niusrprio_session::niusrprio_session(class std::<char,struct std::<char>,class std::<char>> const &__ptr64 ,class std::<char,struct std::<char>,class std::<char>> const &__ptr64 )__ptr64 
??0niusrprio_session@niusrprio@uhd@@QEAA@AEBV?$basic_string@DU?$char_traits@D@std@@V?$allocator@D@2@@std@@0@Z
; protected: __cdecl uhd::rfnoc::noc_block_base::noc_block_base(class std::<struct uhd::rfnoc::noc_block_base::make_args_t,struct std::<struct uhd::rfnoc::noc_block_base::make_args_t>>)__ptr64 
??0noc_block_base@rfnoc@uhd@@IEAA@V?$unique_ptr@Umake_args_t@noc_block_base@rfnoc@uhd@@U?$default_delete@Umake_args_t@noc_block_base@rfnoc@uhd@@@std@@@std@@@Z
; public: __cdecl uhd::rfnoc::node_t::node_t(void)__ptr64 
??0node_t@rfnoc@uhd@@QEAA@XZ
; public: __cdecl uhd::not_implemented_error::not_implemented_error(,struct uhd::not_implemented_error *__ptr64 const)__ptr64 
??0not_implemented_error@uhd@@QEAA@$$QEAU01@@Z
; public: __cdecl uhd::not_implemented_error::not_implemented_error(struct uhd::not_implemented_error const &__ptr64 )__ptr64 
??0not_implemented_error@uhd@@QEAA@AEBU01@@Z
; public: __cdecl uhd::not_implemented_error::not_implemented_error(class std::<char,struct std::<char>,class std::<char>> const &__ptr64 )__ptr64 
??0not_implemented_error@uhd@@QEAA@AEBV?$basic_string@DU?$char_traits@D@std@@V?$allocator@D@2@@std@@@Z
; public: __cdecl uhd::rfnoc::null_block_control::null_block_control(class std::<struct uhd::rfnoc::noc_block_base::make_args_t,struct std::<struct uhd::rfnoc::noc_block_base::make_args_t>>)__ptr64 
??0null_block_control@rfnoc@uhd@@QEAA@V?$unique_ptr@Umake_args_t@noc_block_base@rfnoc@uhd@@U?$default_delete@Umake_args_t@noc_block_base@rfnoc@uhd@@@std@@@std@@@Z
; public: __cdecl uhd::usrp_clock::octoclock_eeprom_t::octoclock_eeprom_t(,class uhd::usrp_clock::octoclock_eeprom_t *__ptr64 const)__ptr64 
??0octoclock_eeprom_t@usrp_clock@uhd@@QEAA@$$QEAV012@@Z
; public: __cdecl uhd::usrp_clock::octoclock_eeprom_t::octoclock_eeprom_t(class uhd::usrp_clock::octoclock_eeprom_t const &__ptr64 )__ptr64 
??0octoclock_eeprom_t@usrp_clock@uhd@@QEAA@AEBV012@@Z
; public: __cdecl uhd::usrp_clock::octoclock_eeprom_t::octoclock_eeprom_t(class std::<class uhd::transport::udp_simple>,unsigned int)__ptr64 
??0octoclock_eeprom_t@usrp_clock@uhd@@QEAA@V?$shared_ptr@Vudp_simple@transport@uhd@@@std@@I@Z
; public: __cdecl uhd::usrp_clock::octoclock_eeprom_t::octoclock_eeprom_t(void)__ptr64 
??0octoclock_eeprom_t@usrp_clock@uhd@@QEAA@XZ
; public: __cdecl uhd::op_failed::op_failed(,struct uhd::op_failed *__ptr64 const)__ptr64 
??0op_failed@uhd@@QEAA@$$QEAU01@@Z
; public: __cdecl uhd::op_failed::op_failed(struct uhd::op_failed const &__ptr64 )__ptr64 
??0op_failed@uhd@@QEAA@AEBU01@@Z
; public: __cdecl uhd::op_failed::op_failed(class std::<char,struct std::<char>,class std::<char>> const &__ptr64 )__ptr64 
??0op_failed@uhd@@QEAA@AEBV?$basic_string@DU?$char_traits@D@std@@V?$allocator@D@2@@std@@@Z
; public: __cdecl uhd::op_seqerr::op_seqerr(,struct uhd::op_seqerr *__ptr64 const)__ptr64 
??0op_seqerr@uhd@@QEAA@$$QEAU01@@Z
; public: __cdecl uhd::op_seqerr::op_seqerr(struct uhd::op_seqerr const &__ptr64 )__ptr64 
??0op_seqerr@uhd@@QEAA@AEBU01@@Z
; public: __cdecl uhd::op_seqerr::op_seqerr(class std::<char,struct std::<char>,class std::<char>> const &__ptr64 )__ptr64 
??0op_seqerr@uhd@@QEAA@AEBV?$basic_string@DU?$char_traits@D@std@@V?$allocator@D@2@@std@@@Z
; public: __cdecl uhd::op_timeout::op_timeout(,struct uhd::op_timeout *__ptr64 const)__ptr64 
??0op_timeout@uhd@@QEAA@$$QEAU01@@Z
; public: __cdecl uhd::op_timeout::op_timeout(struct uhd::op_timeout const &__ptr64 )__ptr64 
??0op_timeout@uhd@@QEAA@AEBU01@@Z
; public: __cdecl uhd::op_timeout::op_timeout(class std::<char,struct std::<char>,class std::<char>> const &__ptr64 )__ptr64 
??0op_timeout@uhd@@QEAA@AEBV?$basic_string@DU?$char_traits@D@std@@V?$allocator@D@2@@std@@@Z
; public: __cdecl uhd::op_timerr::op_timerr(,struct uhd::op_timerr *__ptr64 const)__ptr64 
??0op_timerr@uhd@@QEAA@$$QEAU01@@Z
; public: __cdecl uhd::op_timerr::op_timerr(struct uhd::op_timerr const &__ptr64 )__ptr64 
??0op_timerr@uhd@@QEAA@AEBU01@@Z
; public: __cdecl uhd::op_timerr::op_timerr(class std::<char,struct std::<char>,class std::<char>> const &__ptr64 )__ptr64 
??0op_timerr@uhd@@QEAA@AEBV?$basic_string@DU?$char_traits@D@std@@V?$allocator@D@2@@std@@@Z
; public: __cdecl uhd::os_error::os_error(,struct uhd::os_error *__ptr64 const)__ptr64 
??0os_error@uhd@@QEAA@$$QEAU01@@Z
; public: __cdecl uhd::os_error::os_error(struct uhd::os_error const &__ptr64 )__ptr64 
??0os_error@uhd@@QEAA@AEBU01@@Z
; public: __cdecl uhd::os_error::os_error(class std::<char,struct std::<char>,class std::<char>> const &__ptr64 )__ptr64 
??0os_error@uhd@@QEAA@AEBV?$basic_string@DU?$char_traits@D@std@@V?$allocator@D@2@@std@@@Z
; public: __cdecl uhd::rfnoc::property_base_t::property_base_t(class uhd::rfnoc::property_base_t const &__ptr64 )__ptr64 
??0property_base_t@rfnoc@uhd@@QEAA@AEBV012@@Z
; public: __cdecl uhd::rfnoc::property_base_t::property_base_t(class std::<char,struct std::<char>,class std::<char>> const &__ptr64 ,struct uhd::rfnoc::res_source_info const &__ptr64 )__ptr64 
??0property_base_t@rfnoc@uhd@@QEAA@AEBV?$basic_string@DU?$char_traits@D@std@@V?$allocator@D@2@@std@@AEBUres_source_info@12@@Z
; public: __cdecl uhd::property_iface::property_iface(class uhd::property_iface const &__ptr64 )__ptr64 
??0property_iface@uhd@@QEAA@AEBV01@@Z
; public: __cdecl uhd::property_iface::property_iface(void)__ptr64 
??0property_iface@uhd@@QEAA@XZ
; public: __cdecl uhd::property_tree::property_tree(void)__ptr64 
??0property_tree@uhd@@QEAA@XZ
; public: __cdecl uhd::usrp::cal::pwr_cal::pwr_cal(,class uhd::usrp::cal::pwr_cal *__ptr64 const)__ptr64 
??0pwr_cal@cal@usrp@uhd@@QEAA@$$QEAV0123@@Z
; public: __cdecl uhd::usrp::cal::pwr_cal::pwr_cal(class uhd::usrp::cal::pwr_cal const &__ptr64 )__ptr64 
??0pwr_cal@cal@usrp@uhd@@QEAA@AEBV0123@@Z
; public: __cdecl uhd::usrp::cal::pwr_cal::pwr_cal(void)__ptr64 
??0pwr_cal@cal@usrp@uhd@@QEAA@XZ
; public: __cdecl uhd::range_t::range_t(double)__ptr64 
??0range_t@uhd@@QEAA@N@Z
; public: __cdecl uhd::range_t::range_t(double,double,double)__ptr64 
??0range_t@uhd@@QEAA@NNN@Z
; public: __cdecl uhd::features::ref_clk_calibration_iface::ref_clk_calibration_iface(class uhd::features::ref_clk_calibration_iface const &__ptr64 )__ptr64 
??0ref_clk_calibration_iface@features@uhd@@QEAA@AEBV012@@Z
; public: __cdecl uhd::features::ref_clk_calibration_iface::ref_clk_calibration_iface(void)__ptr64 
??0ref_clk_calibration_iface@features@uhd@@QEAA@XZ
; public: __cdecl uhd::rfnoc::reg_iface_adapter::reg_iface_adapter(,class uhd::rfnoc::reg_iface_adapter *__ptr64 const)__ptr64 
??0reg_iface_adapter@rfnoc@uhd@@QEAA@$$QEAV012@@Z
; public: __cdecl uhd::rfnoc::reg_iface_adapter::reg_iface_adapter(,class std::<class uhd::rfnoc::register_iface &__ptr64 __cdecl(void)> *__ptr64 const,,class std::<class uhd::time_spec_t __cdecl(void)> *__ptr64 const,,class std::<void __cdecl(class uhd::time_spec_t const &__ptr64 )> *__ptr64 const,unsigned int)__ptr64 
??0reg_iface_adapter@rfnoc@uhd@@QEAA@$$QEAV?$function@$$A6AAEAVregister_iface@rfnoc@uhd@@XZ@std@@$$QEAV?$function@$$A6A?AVtime_spec_t@uhd@@XZ@4@$$QEAV?$function@$$A6AXAEBVtime_spec_t@uhd@@@Z@4@I@Z
; public: __cdecl uhd::rfnoc::reg_iface_adapter::reg_iface_adapter(,class std::<class uhd::rfnoc::register_iface &__ptr64 __cdecl(void)> *__ptr64 const,unsigned int)__ptr64 
??0reg_iface_adapter@rfnoc@uhd@@QEAA@$$QEAV?$function@$$A6AAEAVregister_iface@rfnoc@uhd@@XZ@std@@I@Z
; public: __cdecl uhd::rfnoc::reg_iface_adapter::reg_iface_adapter(class uhd::rfnoc::reg_iface_adapter const &__ptr64 )__ptr64 
??0reg_iface_adapter@rfnoc@uhd@@QEAA@AEBV012@@Z
; public: __cdecl uhd::rfnoc::replay_block_control::replay_block_control(class std::<struct uhd::rfnoc::noc_block_base::make_args_t,struct std::<struct uhd::rfnoc::noc_block_base::make_args_t>>)__ptr64 
??0replay_block_control@rfnoc@uhd@@QEAA@V?$unique_ptr@Umake_args_t@noc_block_base@rfnoc@uhd@@U?$default_delete@Umake_args_t@noc_block_base@rfnoc@uhd@@@std@@@std@@@Z
; public: __cdecl uhd::resolve_error::resolve_error(,struct uhd::resolve_error *__ptr64 const)__ptr64 
??0resolve_error@uhd@@QEAA@$$QEAU01@@Z
; public: __cdecl uhd::resolve_error::resolve_error(struct uhd::resolve_error const &__ptr64 )__ptr64 
??0resolve_error@uhd@@QEAA@AEBU01@@Z
; public: __cdecl uhd::resolve_error::resolve_error(class std::<char,struct std::<char>,class std::<char>> const &__ptr64 )__ptr64 
??0resolve_error@uhd@@QEAA@AEBV?$basic_string@DU?$char_traits@D@std@@V?$allocator@D@2@@std@@@Z
; public: __cdecl uhd::rfnoc_error::rfnoc_error(,struct uhd::rfnoc_error *__ptr64 const)__ptr64 
??0rfnoc_error@uhd@@QEAA@$$QEAU01@@Z
; public: __cdecl uhd::rfnoc_error::rfnoc_error(struct uhd::rfnoc_error const &__ptr64 )__ptr64 
??0rfnoc_error@uhd@@QEAA@AEBU01@@Z
; public: __cdecl uhd::rfnoc_error::rfnoc_error(class std::<char,struct std::<char>,class std::<char>> const &__ptr64 )__ptr64 
??0rfnoc_error@uhd@@QEAA@AEBV?$basic_string@DU?$char_traits@D@std@@V?$allocator@D@2@@std@@@Z
; public: __cdecl uhd::rfnoc::rfnoc_graph::rfnoc_graph(void)__ptr64 
??0rfnoc_graph@rfnoc@uhd@@QEAA@XZ
; public: __cdecl uhd::routing_error::routing_error(,struct uhd::routing_error *__ptr64 const)__ptr64 
??0routing_error@uhd@@QEAA@$$QEAU01@@Z
; public: __cdecl uhd::routing_error::routing_error(struct uhd::routing_error const &__ptr64 )__ptr64 
??0routing_error@uhd@@QEAA@AEBU01@@Z
; public: __cdecl uhd::routing_error::routing_error(class std::<char,struct std::<char>,class std::<char>> const &__ptr64 )__ptr64 
??0routing_error@uhd@@QEAA@AEBV?$basic_string@DU?$char_traits@D@std@@V?$allocator@D@2@@std@@@Z
; public: __cdecl uhd::runtime_error::runtime_error(,struct uhd::runtime_error *__ptr64 const)__ptr64 
??0runtime_error@uhd@@QEAA@$$QEAU01@@Z
; public: __cdecl uhd::runtime_error::runtime_error(struct uhd::runtime_error const &__ptr64 )__ptr64 
??0runtime_error@uhd@@QEAA@AEBU01@@Z
; public: __cdecl uhd::runtime_error::runtime_error(class std::<char,struct std::<char>,class std::<char>> const &__ptr64 )__ptr64 
??0runtime_error@uhd@@QEAA@AEBV?$basic_string@DU?$char_traits@D@std@@V?$allocator@D@2@@std@@@Z
; public: __cdecl uhd::usrp::rx_dboard_base::rx_dboard_base(void *__ptr64)__ptr64 
??0rx_dboard_base@usrp@uhd@@QEAA@PEAX@Z
; protected: __cdecl uhd::rfnoc::rx_event_action_info::rx_event_action_info(enum uhd::rx_metadata_t::error_code_t)__ptr64 
??0rx_event_action_info@rfnoc@uhd@@IEAA@W4error_code_t@rx_metadata_t@2@@Z
; public: __cdecl uhd::rfnoc::rx_event_action_info::rx_event_action_info(,struct uhd::rfnoc::rx_event_action_info *__ptr64 const)__ptr64 
??0rx_event_action_info@rfnoc@uhd@@QEAA@$$QEAU012@@Z
; public: __cdecl uhd::rfnoc::rx_event_action_info::rx_event_action_info(struct uhd::rfnoc::rx_event_action_info const &__ptr64 )__ptr64 
??0rx_event_action_info@rfnoc@uhd@@QEAA@AEBU012@@Z
; public: __cdecl uhd::rx_metadata_t::rx_metadata_t(void)__ptr64 
??0rx_metadata_t@uhd@@QEAA@XZ
; public: __cdecl uhd::rx_streamer::rx_streamer(void)__ptr64 
??0rx_streamer@uhd@@QEAA@XZ
; public: __cdecl uhd::sensor_value_t::sensor_value_t(struct uhd::sensor_value_t const &__ptr64 )__ptr64 
??0sensor_value_t@uhd@@QEAA@AEBU01@@Z
; public: __cdecl uhd::sensor_value_t::sensor_value_t(class std::<char,struct std::<char>,class std::<char>> const &__ptr64 ,class std::<char,struct std::<char>,class std::<char>> const &__ptr64 ,class std::<char,struct std::<char>,class std::<char>> const &__ptr64 )__ptr64 
??0sensor_value_t@uhd@@QEAA@AEBV?$basic_string@DU?$char_traits@D@std@@V?$allocator@D@2@@std@@00@Z
; public: __cdecl uhd::sensor_value_t::sensor_value_t(class std::<char,struct std::<char>,class std::<char>> const &__ptr64 ,int,class std::<char,struct std::<char>,class std::<char>> const &__ptr64 ,class std::<char,struct std::<char>,class std::<char>> const &__ptr64 )__ptr64 
??0sensor_value_t@uhd@@QEAA@AEBV?$basic_string@DU?$char_traits@D@std@@V?$allocator@D@2@@std@@H00@Z
; public: __cdecl uhd::sensor_value_t::sensor_value_t(class std::<char,struct std::<char>,class std::<char>> const &__ptr64 ,double,class std::<char,struct std::<char>,class std::<char>> const &__ptr64 ,class std::<char,struct std::<char>,class std::<char>> const &__ptr64 )__ptr64 
??0sensor_value_t@uhd@@QEAA@AEBV?$basic_string@DU?$char_traits@D@std@@V?$allocator@D@2@@std@@N00@Z
; public: __cdecl uhd::sensor_value_t::sensor_value_t(class std::<char,struct std::<char>,class std::<char>> const &__ptr64 ,bool,class std::<char,struct std::<char>,class std::<char>> const &__ptr64 ,class std::<char,struct std::<char>,class std::<char>> const &__ptr64 )__ptr64 
??0sensor_value_t@uhd@@QEAA@AEBV?$basic_string@DU?$char_traits@D@std@@V?$allocator@D@2@@std@@_N00@Z
; public: __cdecl uhd::sensor_value_t::sensor_value_t(class std::<class std::<char,struct std::<char>,class std::<char>>,class std::<char,struct std::<char>,class std::<char>>,struct std::<class std::<char,struct std::<char>,class std::<char>>>,class std::<struct std::<class std::<char,struct std::<char>,class std::<char>> const,class std::<char,struct std::<char>,class std::<char>>>>> const &__ptr64 )__ptr64 
??0sensor_value_t@uhd@@QEAA@AEBV?$map@V?$basic_string@DU?$char_traits@D@std@@V?$allocator@D@2@@std@@V12@U?$less@V?$basic_string@DU?$char_traits@D@std@@V?$allocator@D@2@@std@@@2@V?$allocator@U?$pair@$$CBV?$basic_string@DU?$char_traits@D@std@@V?$allocator@D@2@@std@@V12@@std@@@2@@std@@@Z
; public: __cdecl uhd::rfnoc::siggen_block_control::siggen_block_control(class std::<struct uhd::rfnoc::noc_block_base::make_args_t,struct std::<struct uhd::rfnoc::noc_block_base::make_args_t>>)__ptr64 
??0siggen_block_control@rfnoc@uhd@@QEAA@V?$unique_ptr@Umake_args_t@noc_block_base@rfnoc@uhd@@U?$default_delete@Umake_args_t@noc_block_base@rfnoc@uhd@@@std@@@std@@@Z
; public: __cdecl uhd::soft_regmap_accessor_t::soft_regmap_accessor_t(class uhd::soft_regmap_accessor_t const &__ptr64 )__ptr64 
??0soft_regmap_accessor_t@uhd@@QEAA@AEBV01@@Z
; public: __cdecl uhd::soft_regmap_accessor_t::soft_regmap_accessor_t(void)__ptr64 
??0soft_regmap_accessor_t@uhd@@QEAA@XZ
; public: __cdecl uhd::soft_regmap_db_t::soft_regmap_db_t(class std::<char,struct std::<char>,class std::<char>> const &__ptr64 )__ptr64 
??0soft_regmap_db_t@uhd@@QEAA@AEBV?$basic_string@DU?$char_traits@D@std@@V?$allocator@D@2@@std@@@Z
; public: __cdecl uhd::soft_regmap_db_t::soft_regmap_db_t(void)__ptr64 
??0soft_regmap_db_t@uhd@@QEAA@XZ
; public: __cdecl uhd::soft_regmap_t::soft_regmap_t(class std::<char,struct std::<char>,class std::<char>> const &__ptr64 )__ptr64 
??0soft_regmap_t@uhd@@QEAA@AEBV?$basic_string@DU?$char_traits@D@std@@V?$allocator@D@2@@std@@@Z
; public: __cdecl uhd::spi_config_t::spi_config_t(enum uhd::spi_config_t::edge_t)__ptr64 
??0spi_config_t@uhd@@QEAA@W4edge_t@01@@Z
; public: __cdecl uhd::spi_config_t::spi_config_t(enum uhd::spi_config_t::edge_t,unsigned __int64)__ptr64 
??0spi_config_t@uhd@@QEAA@W4edge_t@01@_K@Z
; public: __cdecl uhd::features::spi_getter_iface::spi_getter_iface(class uhd::features::spi_getter_iface const &__ptr64 )__ptr64 
??0spi_getter_iface@features@uhd@@QEAA@AEBV012@@Z
; public: __cdecl uhd::features::spi_getter_iface::spi_getter_iface(void)__ptr64 
??0spi_getter_iface@features@uhd@@QEAA@XZ
; public: __cdecl uhd::spi_iface::spi_iface(class uhd::spi_iface const &__ptr64 )__ptr64 
??0spi_iface@uhd@@QEAA@AEBV01@@Z
; public: __cdecl uhd::spi_iface::spi_iface(void)__ptr64 
??0spi_iface@uhd@@QEAA@XZ
; public: __cdecl uhd::rfnoc::split_stream_block_control::split_stream_block_control(class std::<struct uhd::rfnoc::noc_block_base::make_args_t,struct std::<struct uhd::rfnoc::noc_block_base::make_args_t>>)__ptr64 
??0split_stream_block_control@rfnoc@uhd@@QEAA@V?$unique_ptr@Umake_args_t@noc_block_base@rfnoc@uhd@@U?$default_delete@Umake_args_t@noc_block_base@rfnoc@uhd@@@std@@@std@@@Z
; public: __cdecl uhd::rfnoc::chdr::strc_payload::strc_payload(void)__ptr64 
??0strc_payload@chdr@rfnoc@uhd@@QEAA@XZ
; public: __cdecl uhd::stream_args_t::stream_args_t(,struct uhd::stream_args_t *__ptr64 const)__ptr64 
??0stream_args_t@uhd@@QEAA@$$QEAU01@@Z
; public: __cdecl uhd::stream_args_t::stream_args_t(struct uhd::stream_args_t const &__ptr64 )__ptr64 
??0stream_args_t@uhd@@QEAA@AEBU01@@Z
; public: __cdecl uhd::stream_args_t::stream_args_t(class std::<char,struct std::<char>,class std::<char>> const &__ptr64 ,class std::<char,struct std::<char>,class std::<char>> const &__ptr64 )__ptr64 
??0stream_args_t@uhd@@QEAA@AEBV?$basic_string@DU?$char_traits@D@std@@V?$allocator@D@2@@std@@0@Z
; private: __cdecl uhd::rfnoc::stream_cmd_action_info::stream_cmd_action_info(enum uhd::stream_cmd_t::stream_mode_t)__ptr64 
??0stream_cmd_action_info@rfnoc@uhd@@AEAA@W4stream_mode_t@stream_cmd_t@2@@Z
; public: __cdecl uhd::rfnoc::stream_cmd_action_info::stream_cmd_action_info(,struct uhd::rfnoc::stream_cmd_action_info *__ptr64 const)__ptr64 
??0stream_cmd_action_info@rfnoc@uhd@@QEAA@$$QEAU012@@Z
; public: __cdecl uhd::rfnoc::stream_cmd_action_info::stream_cmd_action_info(struct uhd::rfnoc::stream_cmd_action_info const &__ptr64 )__ptr64 
??0stream_cmd_action_info@rfnoc@uhd@@QEAA@AEBU012@@Z
; public: __cdecl uhd::stream_cmd_t::stream_cmd_t(enum uhd::stream_cmd_t::stream_mode_t const &__ptr64 )__ptr64 
??0stream_cmd_t@uhd@@QEAA@AEBW4stream_mode_t@01@@Z
; public: __cdecl uhd::rfnoc::chdr::strs_payload::strs_payload(void)__ptr64 
??0strs_payload@chdr@rfnoc@uhd@@QEAA@XZ
; public: __cdecl uhd::usrp::subdev_spec_pair_t::subdev_spec_pair_t(,struct uhd::usrp::subdev_spec_pair_t *__ptr64 const)__ptr64 
??0subdev_spec_pair_t@usrp@uhd@@QEAA@$$QEAU012@@Z
; public: __cdecl uhd::usrp::subdev_spec_pair_t::subdev_spec_pair_t(struct uhd::usrp::subdev_spec_pair_t const &__ptr64 )__ptr64 
??0subdev_spec_pair_t@usrp@uhd@@QEAA@AEBU012@@Z
; public: __cdecl uhd::usrp::subdev_spec_pair_t::subdev_spec_pair_t(class std::<char,struct std::<char>,class std::<char>> const &__ptr64 ,class std::<char,struct std::<char>,class std::<char>> const &__ptr64 )__ptr64 
??0subdev_spec_pair_t@usrp@uhd@@QEAA@AEBV?$basic_string@DU?$char_traits@D@std@@V?$allocator@D@2@@std@@0@Z
; public: __cdecl uhd::usrp::subdev_spec_t::subdev_spec_t(,class uhd::usrp::subdev_spec_t *__ptr64 const)__ptr64 
??0subdev_spec_t@usrp@uhd@@QEAA@$$QEAV012@@Z
; public: __cdecl uhd::usrp::subdev_spec_t::subdev_spec_t(class uhd::usrp::subdev_spec_t const &__ptr64 )__ptr64 
??0subdev_spec_t@usrp@uhd@@QEAA@AEBV012@@Z
; public: __cdecl uhd::usrp::subdev_spec_t::subdev_spec_t(class std::<char,struct std::<char>,class std::<char>> const &__ptr64 )__ptr64 
??0subdev_spec_t@usrp@uhd@@QEAA@AEBV?$basic_string@DU?$char_traits@D@std@@V?$allocator@D@2@@std@@@Z
; public: __cdecl uhd::rfnoc::switchboard_block_control::switchboard_block_control(class std::<struct uhd::rfnoc::noc_block_base::make_args_t,struct std::<struct uhd::rfnoc::noc_block_base::make_args_t>>)__ptr64 
??0switchboard_block_control@rfnoc@uhd@@QEAA@V?$unique_ptr@Umake_args_t@noc_block_base@rfnoc@uhd@@U?$default_delete@Umake_args_t@noc_block_base@rfnoc@uhd@@@std@@@std@@@Z
; public: __cdecl uhd::syntax_error::syntax_error(,struct uhd::syntax_error *__ptr64 const)__ptr64 
??0syntax_error@uhd@@QEAA@$$QEAU01@@Z
; public: __cdecl uhd::syntax_error::syntax_error(struct uhd::syntax_error const &__ptr64 )__ptr64 
??0syntax_error@uhd@@QEAA@AEBU01@@Z
; public: __cdecl uhd::syntax_error::syntax_error(class std::<char,struct std::<char>,class std::<char>> const &__ptr64 )__ptr64 
??0syntax_error@uhd@@QEAA@AEBV?$basic_string@DU?$char_traits@D@std@@V?$allocator@D@2@@std@@@Z
; public: __cdecl uhd::system_error::system_error(,struct uhd::system_error *__ptr64 const)__ptr64 
??0system_error@uhd@@QEAA@$$QEAU01@@Z
; public: __cdecl uhd::system_error::system_error(struct uhd::system_error const &__ptr64 )__ptr64 
??0system_error@uhd@@QEAA@AEBU01@@Z
; public: __cdecl uhd::system_error::system_error(class std::<char,struct std::<char>,class std::<char>> const &__ptr64 )__ptr64 
??0system_error@uhd@@QEAA@AEBV?$basic_string@DU?$char_traits@D@std@@V?$allocator@D@2@@std@@@Z
; public: __cdecl uhd::time_spec_t::time_spec_t(double)__ptr64 
??0time_spec_t@uhd@@QEAA@N@Z
; public: __cdecl uhd::time_spec_t::time_spec_t(__int64,long,double)__ptr64 
??0time_spec_t@uhd@@QEAA@_JJN@Z
; public: __cdecl uhd::time_spec_t::time_spec_t(__int64,double)__ptr64 
??0time_spec_t@uhd@@QEAA@_JN@Z
; public: __cdecl uhd::timed_wb_iface::timed_wb_iface(,class uhd::timed_wb_iface *__ptr64 const)__ptr64 
??0timed_wb_iface@uhd@@QEAA@$$QEAV01@@Z
; public: __cdecl uhd::timed_wb_iface::timed_wb_iface(class uhd::timed_wb_iface const &__ptr64 )__ptr64 
??0timed_wb_iface@uhd@@QEAA@AEBV01@@Z
; public: __cdecl uhd::timed_wb_iface::timed_wb_iface(void)__ptr64 
??0timed_wb_iface@uhd@@QEAA@XZ
; public: __cdecl uhd::rfnoc::mb_controller::timekeeper::timekeeper(class uhd::rfnoc::mb_controller::timekeeper const &__ptr64 )__ptr64 
??0timekeeper@mb_controller@rfnoc@uhd@@QEAA@AEBV0123@@Z
; public: __cdecl uhd::rfnoc::mb_controller::timekeeper::timekeeper(void)__ptr64 
??0timekeeper@mb_controller@rfnoc@uhd@@QEAA@XZ
; public: __cdecl uhd::features::trig_io_mode_iface::trig_io_mode_iface(class uhd::features::trig_io_mode_iface const &__ptr64 )__ptr64 
??0trig_io_mode_iface@features@uhd@@QEAA@AEBV012@@Z
; public: __cdecl uhd::features::trig_io_mode_iface::trig_io_mode_iface(void)__ptr64 
??0trig_io_mode_iface@features@uhd@@QEAA@XZ
; private: __cdecl uhd::rfnoc::tune_request_action_info::tune_request_action_info(struct uhd::tune_request_t)__ptr64 
??0tune_request_action_info@rfnoc@uhd@@AEAA@Utune_request_t@2@@Z
; public: __cdecl uhd::rfnoc::tune_request_action_info::tune_request_action_info(,struct uhd::rfnoc::tune_request_action_info *__ptr64 const)__ptr64 
??0tune_request_action_info@rfnoc@uhd@@QEAA@$$QEAU012@@Z
; public: __cdecl uhd::rfnoc::tune_request_action_info::tune_request_action_info(struct uhd::rfnoc::tune_request_action_info const &__ptr64 )__ptr64 
??0tune_request_action_info@rfnoc@uhd@@QEAA@AEBU012@@Z
; public: __cdecl uhd::tune_request_t::tune_request_t(,struct uhd::tune_request_t *__ptr64 const)__ptr64 
??0tune_request_t@uhd@@QEAA@$$QEAU01@@Z
; public: __cdecl uhd::tune_request_t::tune_request_t(struct uhd::tune_request_t const &__ptr64 )__ptr64 
??0tune_request_t@uhd@@QEAA@AEBU01@@Z
; public: __cdecl uhd::tune_request_t::tune_request_t(double)__ptr64 
??0tune_request_t@uhd@@QEAA@N@Z
; public: __cdecl uhd::tune_request_t::tune_request_t(double,double)__ptr64 
??0tune_request_t@uhd@@QEAA@NN@Z
; public: __cdecl uhd::tune_result_t::tune_result_t(void)__ptr64 
??0tune_result_t@uhd@@QEAA@XZ
; public: __cdecl uhd::usrp::tx_dboard_base::tx_dboard_base(void *__ptr64)__ptr64 
??0tx_dboard_base@usrp@uhd@@QEAA@PEAX@Z
; protected: __cdecl uhd::rfnoc::tx_event_action_info::tx_event_action_info(enum uhd::async_metadata_t::event_code_t,class boost::<unsigned __int64> const &__ptr64 )__ptr64 
??0tx_event_action_info@rfnoc@uhd@@IEAA@W4event_code_t@async_metadata_t@2@AEBV?$optional@_K@boost@@@Z
; public: __cdecl uhd::rfnoc::tx_event_action_info::tx_event_action_info(,struct uhd::rfnoc::tx_event_action_info *__ptr64 const)__ptr64 
??0tx_event_action_info@rfnoc@uhd@@QEAA@$$QEAU012@@Z
; public: __cdecl uhd::rfnoc::tx_event_action_info::tx_event_action_info(struct uhd::rfnoc::tx_event_action_info const &__ptr64 )__ptr64 
??0tx_event_action_info@rfnoc@uhd@@QEAA@AEBU012@@Z
; public: __cdecl uhd::tx_metadata_t::tx_metadata_t(void)__ptr64 
??0tx_metadata_t@uhd@@QEAA@XZ
; public: __cdecl uhd::tx_streamer::tx_streamer(void)__ptr64 
??0tx_streamer@uhd@@QEAA@XZ
; public: __cdecl uhd::type_error::type_error(,struct uhd::type_error *__ptr64 const)__ptr64 
??0type_error@uhd@@QEAA@$$QEAU01@@Z
; public: __cdecl uhd::type_error::type_error(struct uhd::type_error const &__ptr64 )__ptr64 
??0type_error@uhd@@QEAA@AEBU01@@Z
; public: __cdecl uhd::type_error::type_error(class std::<char,struct std::<char>,class std::<char>> const &__ptr64 )__ptr64 
??0type_error@uhd@@QEAA@AEBV?$basic_string@DU?$char_traits@D@std@@V?$allocator@D@2@@std@@@Z
; public: __cdecl uhd::uart_iface::uart_iface(class uhd::uart_iface const &__ptr64 )__ptr64 
??0uart_iface@uhd@@QEAA@AEBV01@@Z
; public: __cdecl uhd::uart_iface::uart_iface(void)__ptr64 
??0uart_iface@uhd@@QEAA@XZ
; public: __cdecl uhd::transport::udp_simple::udp_simple(void)__ptr64 
??0udp_simple@transport@uhd@@QEAA@XZ
; public: __cdecl uhd::transport::udp_zero_copy::udp_zero_copy(,class uhd::transport::udp_zero_copy *__ptr64 const)__ptr64 
??0udp_zero_copy@transport@uhd@@QEAA@$$QEAV012@@Z
; public: __cdecl uhd::transport::udp_zero_copy::udp_zero_copy(class uhd::transport::udp_zero_copy const &__ptr64 )__ptr64 
??0udp_zero_copy@transport@uhd@@QEAA@AEBV012@@Z
; public: __cdecl uhd::transport::udp_zero_copy::udp_zero_copy(void)__ptr64 
??0udp_zero_copy@transport@uhd@@QEAA@XZ
; public: __cdecl uhd::transport::usb_control::usb_control(void)__ptr64 
??0usb_control@transport@uhd@@QEAA@XZ
; public: __cdecl uhd::transport::usb_device_handle::usb_device_handle(void)__ptr64 
??0usb_device_handle@transport@uhd@@QEAA@XZ
; public: __cdecl uhd::usb_error::usb_error(,struct uhd::usb_error *__ptr64 const)__ptr64 
??0usb_error@uhd@@QEAA@$$QEAU01@@Z
; public: __cdecl uhd::usb_error::usb_error(struct uhd::usb_error const &__ptr64 )__ptr64 
??0usb_error@uhd@@QEAA@AEBU01@@Z
; public: __cdecl uhd::usb_error::usb_error(int,class std::<char,struct std::<char>,class std::<char>> const &__ptr64 )__ptr64 
??0usb_error@uhd@@QEAA@HAEBV?$basic_string@DU?$char_traits@D@std@@V?$allocator@D@2@@std@@@Z
; public: __cdecl uhd::transport::usb_zero_copy::usb_zero_copy(void)__ptr64 
??0usb_zero_copy@transport@uhd@@QEAA@XZ
; public: __cdecl uhd::usrprio_rpc::usrprio_rpc_client::usrprio_rpc_client(class std::<char,struct std::<char>,class std::<char>>,class std::<char,struct std::<char>,class std::<char>>)__ptr64 
??0usrprio_rpc_client@usrprio_rpc@uhd@@QEAA@V?$basic_string@DU?$char_traits@D@std@@V?$allocator@D@2@@std@@0@Z
; public: __cdecl uhd::value_error::value_error(,struct uhd::value_error *__ptr64 const)__ptr64 
??0value_error@uhd@@QEAA@$$QEAU01@@Z
; public: __cdecl uhd::value_error::value_error(struct uhd::value_error const &__ptr64 )__ptr64 
??0value_error@uhd@@QEAA@AEBU01@@Z
; public: __cdecl uhd::value_error::value_error(class std::<char,struct std::<char>,class std::<char>> const &__ptr64 )__ptr64 
??0value_error@uhd@@QEAA@AEBV?$basic_string@DU?$char_traits@D@std@@V?$allocator@D@2@@std@@@Z
; public: __cdecl uhd::rfnoc::vector_iir_block_control::vector_iir_block_control(class std::<struct uhd::rfnoc::noc_block_base::make_args_t,struct std::<struct uhd::rfnoc::noc_block_base::make_args_t>>)__ptr64 
??0vector_iir_block_control@rfnoc@uhd@@QEAA@V?$unique_ptr@Umake_args_t@noc_block_base@rfnoc@uhd@@U?$default_delete@Umake_args_t@noc_block_base@rfnoc@uhd@@@std@@@std@@@Z
; public: __cdecl uhd::wb_iface::wb_iface(class uhd::wb_iface const &__ptr64 )__ptr64 
??0wb_iface@uhd@@QEAA@AEBV01@@Z
; public: __cdecl uhd::wb_iface::wb_iface(void)__ptr64 
??0wb_iface@uhd@@QEAA@XZ
; public: __cdecl uhd::rfnoc::window_block_control::window_block_control(class std::<struct uhd::rfnoc::noc_block_base::make_args_t,struct std::<struct uhd::rfnoc::noc_block_base::make_args_t>>)__ptr64 
??0window_block_control@rfnoc@uhd@@QEAA@V?$unique_ptr@Umake_args_t@noc_block_base@rfnoc@uhd@@U?$default_delete@Umake_args_t@noc_block_base@rfnoc@uhd@@@std@@@std@@@Z
; public: __cdecl uhd::usrp::xcvr_dboard_base::xcvr_dboard_base(void *__ptr64)__ptr64 
??0xcvr_dboard_base@usrp@uhd@@QEAA@PEAX@Z
; public: __cdecl uhd::usrp::cal::zbx_rx_dsa_cal::zbx_rx_dsa_cal(,class uhd::usrp::cal::zbx_rx_dsa_cal *__ptr64 const)__ptr64 
??0zbx_rx_dsa_cal@cal@usrp@uhd@@QEAA@$$QEAV0123@@Z
; public: __cdecl uhd::usrp::cal::zbx_rx_dsa_cal::zbx_rx_dsa_cal(class uhd::usrp::cal::zbx_rx_dsa_cal const &__ptr64 )__ptr64 
??0zbx_rx_dsa_cal@cal@usrp@uhd@@QEAA@AEBV0123@@Z
; public: __cdecl uhd::usrp::cal::zbx_rx_dsa_cal::zbx_rx_dsa_cal(void)__ptr64 
??0zbx_rx_dsa_cal@cal@usrp@uhd@@QEAA@XZ
; public: __cdecl uhd::usrp::cal::zbx_tx_dsa_cal::zbx_tx_dsa_cal(,class uhd::usrp::cal::zbx_tx_dsa_cal *__ptr64 const)__ptr64 
??0zbx_tx_dsa_cal@cal@usrp@uhd@@QEAA@$$QEAV0123@@Z
; public: __cdecl uhd::usrp::cal::zbx_tx_dsa_cal::zbx_tx_dsa_cal(class uhd::usrp::cal::zbx_tx_dsa_cal const &__ptr64 )__ptr64 
??0zbx_tx_dsa_cal@cal@usrp@uhd@@QEAA@AEBV0123@@Z
; public: __cdecl uhd::usrp::cal::zbx_tx_dsa_cal::zbx_tx_dsa_cal(void)__ptr64 
??0zbx_tx_dsa_cal@cal@usrp@uhd@@QEAA@XZ
; public: __cdecl uhd::transport::zero_copy_if::zero_copy_if(void)__ptr64 
??0zero_copy_if@transport@uhd@@QEAA@XZ
; public: virtual __cdecl boost::archive::<wchar_t>::~<wchar_t>(void)__ptr64 
??1?$codecvt_null@_W@archive@boost@@UEAA@XZ
; public: __cdecl uhd::<class std::<char,struct std::<char>,class std::<char>>,class std::<char,struct std::<char>,class std::<char>>>::~<class std::<char,struct std::<char>,class std::<char>>,class std::<char,struct std::<char>,class std::<char>>>(void)__ptr64 
??1?$dict@V?$basic_string@DU?$char_traits@D@std@@V?$allocator@D@2@@std@@V12@@uhd@@QEAA@XZ
; protected: __cdecl std::<class uhd::rfnoc::rfnoc_graph>::~<class uhd::rfnoc::rfnoc_graph>(void)__ptr64 
??1?$enable_shared_from_this@Vrfnoc_graph@rfnoc@uhd@@@std@@IEAA@XZ
; public: virtual __cdecl uhd::<unsigned int,0x1ULL,0x0ULL>::~<unsigned int,0x1ULL,0x0ULL>(void)__ptr64 
??1?$soft_register_t@I$00$0A@@uhd@@UEAA@XZ
; public: virtual __cdecl uhd::<unsigned int,0x0ULL,0x1ULL>::~<unsigned int,0x0ULL,0x1ULL>(void)__ptr64 
??1?$soft_register_t@I$0A@$00@uhd@@UEAA@XZ
; public: virtual __cdecl uhd::<unsigned __int64,0x1ULL,0x0ULL>::~<unsigned __int64,0x1ULL,0x0ULL>(void)__ptr64 
??1?$soft_register_t@_K$00$0A@@uhd@@UEAA@XZ
; public: __cdecl std::<struct uhd::usrp::subdev_spec_pair_t,class std::<struct uhd::usrp::subdev_spec_pair_t>>::~<struct uhd::usrp::subdev_spec_pair_t,class std::<struct uhd::usrp::subdev_spec_pair_t>>(void)__ptr64 
??1?$vector@Usubdev_spec_pair_t@usrp@uhd@@V?$allocator@Usubdev_spec_pair_t@usrp@uhd@@@std@@@std@@QEAA@XZ
; public: __cdecl std::<class uhd::range_t,class std::<class uhd::range_t>>::~<class uhd::range_t,class std::<class uhd::range_t>>(void)__ptr64 
??1?$vector@Vrange_t@uhd@@V?$allocator@Vrange_t@uhd@@@std@@@std@@QEAA@XZ
; public: virtual __cdecl uhd::access_error::~access_error(void)__ptr64 
??1access_error@uhd@@UEAA@XZ
; public: virtual __cdecl uhd::rfnoc::action_info::~action_info(void)__ptr64 
??1action_info@rfnoc@uhd@@UEAA@XZ
; public: virtual __cdecl uhd::features::adc_self_calibration_iface::~adc_self_calibration_iface(void)__ptr64 
??1adc_self_calibration_iface@features@uhd@@UEAA@XZ
; public: virtual __cdecl uhd::rfnoc::addsub_block_control::~addsub_block_control(void)__ptr64 
??1addsub_block_control@rfnoc@uhd@@UEAA@XZ
; public: virtual __cdecl uhd::analog_filter_base::~analog_filter_base(void)__ptr64 
??1analog_filter_base@uhd@@UEAA@XZ
; public: virtual __cdecl uhd::analog_filter_lp::~analog_filter_lp(void)__ptr64 
??1analog_filter_lp@uhd@@UEAA@XZ
; public: virtual __cdecl uhd::rfnoc::rf_control::antenna_iface::~antenna_iface(void)__ptr64 
??1antenna_iface@rf_control@rfnoc@uhd@@UEAA@XZ
; public: virtual __cdecl uhd::rfnoc::rf_control::antenna_radio_control_mixin::~antenna_radio_control_mixin(void)__ptr64 
??1antenna_radio_control_mixin@rf_control@rfnoc@uhd@@UEAA@XZ
; public: virtual __cdecl uhd::assertion_error::~assertion_error(void)__ptr64 
??1assertion_error@uhd@@UEAA@XZ
; public: virtual __cdecl b200_iface::~b200_iface(void)__ptr64 
??1b200_iface@@UEAA@XZ
; public: virtual __cdecl uhd::rfnoc::block_control::~block_control(void)__ptr64 
??1block_control@rfnoc@uhd@@UEAA@XZ
; public: __cdecl uhd::rfnoc::block_id_t::~block_id_t(void)__ptr64 
??1block_id_t@rfnoc@uhd@@QEAA@XZ
; public: virtual __cdecl uhd::transport::buffer_pool::~buffer_pool(void)__ptr64 
??1buffer_pool@transport@uhd@@UEAA@XZ
; public: __cdecl uhd::utils::chdr::chdr_packet::~chdr_packet(void)__ptr64 
??1chdr_packet@chdr@utils@uhd@@QEAA@XZ
; public: virtual __cdecl uhd::usrp::cal::container::~container(void)__ptr64 
??1container@cal@usrp@uhd@@UEAA@XZ
; public: __cdecl uhd::rfnoc::chdr::ctrl_payload::~ctrl_payload(void)__ptr64 
??1ctrl_payload@chdr@rfnoc@uhd@@QEAA@XZ
; public: virtual __cdecl uhd::usrp::dboard_base::~dboard_base(void)__ptr64 
??1dboard_base@usrp@uhd@@UEAA@XZ
; public: __cdecl uhd::usrp::dboard_eeprom_t::~dboard_eeprom_t(void)__ptr64 
??1dboard_eeprom_t@usrp@uhd@@QEAA@XZ
; public: virtual __cdecl uhd::usrp::dboard_iface::~dboard_iface(void)__ptr64 
??1dboard_iface@usrp@uhd@@UEAA@XZ
; public: virtual __cdecl uhd::usrp::dboard_manager::~dboard_manager(void)__ptr64 
??1dboard_manager@usrp@uhd@@UEAA@XZ
; public: virtual __cdecl uhd::rfnoc::ddc_block_control::~ddc_block_control(void)__ptr64 
??1ddc_block_control@rfnoc@uhd@@UEAA@XZ
; public: virtual __cdecl uhd::device::~device(void)__ptr64 
??1device@uhd@@UEAA@XZ
; public: __cdecl uhd::device_addr_t::~device_addr_t(void)__ptr64 
??1device_addr_t@uhd@@QEAA@XZ
; public: virtual __cdecl uhd::features::discoverable_feature::~discoverable_feature(void)__ptr64 
??1discoverable_feature@features@uhd@@UEAA@XZ
; public: virtual __cdecl uhd::features::discoverable_feature_getter_iface::~discoverable_feature_getter_iface(void)__ptr64 
??1discoverable_feature_getter_iface@features@uhd@@UEAA@XZ
; public: virtual __cdecl uhd::rfnoc::dmafifo_block_control::~dmafifo_block_control(void)__ptr64 
??1dmafifo_block_control@rfnoc@uhd@@UEAA@XZ
; public: virtual __cdecl uhd::rfnoc::duc_block_control::~duc_block_control(void)__ptr64 
??1duc_block_control@rfnoc@uhd@@UEAA@XZ
; public: virtual __cdecl uhd::rfnoc::rf_control::enumerated_antenna::~enumerated_antenna(void)__ptr64 
??1enumerated_antenna@rf_control@rfnoc@uhd@@UEAA@XZ
; public: virtual __cdecl uhd::environment_error::~environment_error(void)__ptr64 
??1environment_error@uhd@@UEAA@XZ
; public: virtual __cdecl uhd::exception::~exception(void)__ptr64 
??1exception@uhd@@UEAA@XZ
; public: virtual __cdecl uhd::experts::expert_container::~expert_container(void)__ptr64 
??1expert_container@experts@uhd@@UEAA@XZ
; public: virtual __cdecl uhd::extension::extension::~extension(void)__ptr64 
??1extension@0uhd@@UEAA@XZ
; public: virtual __cdecl uhd::rfnoc::fft_block_control::~fft_block_control(void)__ptr64 
??1fft_block_control@rfnoc@uhd@@UEAA@XZ
; public: virtual __cdecl uhd::filter_info_base::~filter_info_base(void)__ptr64 
??1filter_info_base@uhd@@UEAA@XZ
; public: virtual __cdecl uhd::rfnoc::fir_filter_block_control::~fir_filter_block_control(void)__ptr64 
??1fir_filter_block_control@rfnoc@uhd@@UEAA@XZ
; public: virtual __cdecl uhd::rfnoc::fosphor_block_control::~fosphor_block_control(void)__ptr64 
??1fosphor_block_control@rfnoc@uhd@@UEAA@XZ
; public: __cdecl uhd::gain_fcns_t::~gain_fcns_t(void)__ptr64 
??1gain_fcns_t@uhd@@QEAA@XZ
; public: virtual __cdecl uhd::gain_group::~gain_group(void)__ptr64 
??1gain_group@uhd@@UEAA@XZ
; public: virtual __cdecl uhd::features::gpio_power_iface::~gpio_power_iface(void)__ptr64 
??1gpio_power_iface@features@uhd@@UEAA@XZ
; public: virtual __cdecl uhd::gps_ctrl::~gps_ctrl(void)__ptr64 
??1gps_ctrl@uhd@@UEAA@XZ
; public: __cdecl uhd::rfnoc::graph_edge_t::~graph_edge_t(void)__ptr64 
??1graph_edge_t@rfnoc@uhd@@QEAA@XZ
; public: virtual __cdecl uhd::i2c_iface::~i2c_iface(void)__ptr64 
??1i2c_iface@uhd@@UEAA@XZ
; public: __cdecl uhd::convert::id_type::~id_type(void)__ptr64 
??1id_type@convert@uhd@@QEAA@XZ
; public: __cdecl uhd::transport::if_addrs_t::~if_addrs_t(void)__ptr64 
??1if_addrs_t@transport@uhd@@QEAA@XZ
; public: virtual __cdecl uhd::index_error::~index_error(void)__ptr64 
??1index_error@uhd@@UEAA@XZ
; public: virtual __cdecl uhd::features::internal_sync_iface::~internal_sync_iface(void)__ptr64 
??1internal_sync_iface@features@uhd@@UEAA@XZ
; public: virtual __cdecl uhd::io_error::~io_error(void)__ptr64 
??1io_error@uhd@@UEAA@XZ
; public: virtual __cdecl uhd::usrp::cal::iq_cal::~iq_cal(void)__ptr64 
??1iq_cal@cal@usrp@uhd@@UEAA@XZ
; public: virtual __cdecl uhd::rfnoc::keep_one_in_n_block_control::~keep_one_in_n_block_control(void)__ptr64 
??1keep_one_in_n_block_control@rfnoc@uhd@@UEAA@XZ
; public: virtual __cdecl uhd::key_error::~key_error(void)__ptr64 
??1key_error@uhd@@UEAA@XZ
; public: virtual __cdecl uhd::rfnoc::lc_block_control::~lc_block_control(void)__ptr64 
??1lc_block_control@rfnoc@uhd@@UEAA@XZ
; public: __cdecl uhd::_log::log::~log(void)__ptr64 
??1log@_log@uhd@@QEAA@XZ
; public: __cdecl uhd::log::logging_info::~logging_info(void)__ptr64 
??1logging_info@log@uhd@@QEAA@XZ
; public: virtual __cdecl uhd::rfnoc::logpwr_block_control::~logpwr_block_control(void)__ptr64 
??1logpwr_block_control@rfnoc@uhd@@UEAA@XZ
; public: virtual __cdecl uhd::lookup_error::~lookup_error(void)__ptr64 
??1lookup_error@uhd@@UEAA@XZ
; public: __cdecl uhd::mac_addr_t::~mac_addr_t(void)__ptr64 
??1mac_addr_t@uhd@@QEAA@XZ
; public: virtual __cdecl uhd::transport::managed_buffer::~managed_buffer(void)__ptr64 
??1managed_buffer@transport@uhd@@UEAA@XZ
; public: virtual __cdecl uhd::transport::managed_recv_buffer::~managed_recv_buffer(void)__ptr64 
??1managed_recv_buffer@transport@uhd@@UEAA@XZ
; public: virtual __cdecl uhd::transport::managed_send_buffer::~managed_send_buffer(void)__ptr64 
??1managed_send_buffer@transport@uhd@@UEAA@XZ
; public: virtual __cdecl uhd::rfnoc::mb_controller::~mb_controller(void)__ptr64 
??1mb_controller@rfnoc@uhd@@UEAA@XZ
; public: __cdecl uhd::memmap32_iface::~memmap32_iface(void)__ptr64 
??1memmap32_iface@uhd@@QEAA@XZ
; public: __cdecl uhd::memmap32_iface_timed::~memmap32_iface_timed(void)__ptr64 
??1memmap32_iface_timed@uhd@@QEAA@XZ
; public: __cdecl uhd::meta_range_t::~meta_range_t(void)__ptr64 
??1meta_range_t@uhd@@QEAA@XZ
; public: __cdecl uhd::rfnoc::chdr::mgmt_hop_t::~mgmt_hop_t(void)__ptr64 
??1mgmt_hop_t@chdr@rfnoc@uhd@@QEAA@XZ
; public: __cdecl uhd::rfnoc::chdr::mgmt_payload::~mgmt_payload(void)__ptr64 
??1mgmt_payload@chdr@rfnoc@uhd@@QEAA@XZ
; public: __cdecl uhd::rfnoc::mock_block_container::~mock_block_container(void)__ptr64 
??1mock_block_container@rfnoc@uhd@@QEAA@XZ
; public: virtual __cdecl uhd::rfnoc::mock_reg_iface_t::~mock_reg_iface_t(void)__ptr64 
??1mock_reg_iface_t@rfnoc@uhd@@UEAA@XZ
; public: virtual __cdecl uhd::rfnoc::moving_average_block_control::~moving_average_block_control(void)__ptr64 
??1moving_average_block_control@rfnoc@uhd@@UEAA@XZ
; public: virtual __cdecl uhd::msg_task::~msg_task(void)__ptr64 
??1msg_task@uhd@@UEAA@XZ
; public: virtual __cdecl uhd::usrp::multi_usrp::~multi_usrp(void)__ptr64 
??1multi_usrp@usrp@uhd@@UEAA@XZ
; public: virtual __cdecl uhd::usrp_clock::multi_usrp_clock::~multi_usrp_clock(void)__ptr64 
??1multi_usrp_clock@usrp_clock@uhd@@UEAA@XZ
; public: virtual __cdecl uhd::rfnoc::rf_control::nameless_gain_mixin::~nameless_gain_mixin(void)__ptr64 
??1nameless_gain_mixin@rf_control@rfnoc@uhd@@UEAA@XZ
; public: virtual __cdecl uhd::narrowing_error::~narrowing_error(void)__ptr64 
??1narrowing_error@uhd@@UEAA@XZ
; public: virtual __cdecl uhd::niusrprio::nifpga_lvbitx::~nifpga_lvbitx(void)__ptr64 
??1nifpga_lvbitx@niusrprio@uhd@@UEAA@XZ
; public: virtual __cdecl uhd::niusrprio::niriok_proxy::~niriok_proxy(void)__ptr64 
??1niriok_proxy@niusrprio@uhd@@UEAA@XZ
; public: virtual __cdecl uhd::niusrprio::niriok_proxy_impl_v1::~niriok_proxy_impl_v1(void)__ptr64 
??1niriok_proxy_impl_v1@niusrprio@uhd@@UEAA@XZ
; public: virtual __cdecl uhd::niusrprio::niriok_proxy_impl_v2::~niriok_proxy_impl_v2(void)__ptr64 
??1niriok_proxy_impl_v2@niusrprio@uhd@@UEAA@XZ
; public: virtual __cdecl uhd::niusrprio::niusrprio_session::~niusrprio_session(void)__ptr64 
??1niusrprio_session@niusrprio@uhd@@UEAA@XZ
; public: virtual __cdecl uhd::rfnoc::noc_block_base::~noc_block_base(void)__ptr64 
??1noc_block_base@rfnoc@uhd@@UEAA@XZ
; public: virtual __cdecl uhd::rfnoc::node_t::~node_t(void)__ptr64 
??1node_t@rfnoc@uhd@@UEAA@XZ
; public: virtual __cdecl uhd::not_implemented_error::~not_implemented_error(void)__ptr64 
??1not_implemented_error@uhd@@UEAA@XZ
; public: virtual __cdecl uhd::rfnoc::null_block_control::~null_block_control(void)__ptr64 
??1null_block_control@rfnoc@uhd@@UEAA@XZ
; public: __cdecl uhd::usrp_clock::octoclock_eeprom_t::~octoclock_eeprom_t(void)__ptr64 
??1octoclock_eeprom_t@usrp_clock@uhd@@QEAA@XZ
; public: virtual __cdecl uhd::op_failed::~op_failed(void)__ptr64 
??1op_failed@uhd@@UEAA@XZ
; public: virtual __cdecl uhd::op_seqerr::~op_seqerr(void)__ptr64 
??1op_seqerr@uhd@@UEAA@XZ
; public: virtual __cdecl uhd::op_timeout::~op_timeout(void)__ptr64 
??1op_timeout@uhd@@UEAA@XZ
; public: virtual __cdecl uhd::op_timerr::~op_timerr(void)__ptr64 
??1op_timerr@uhd@@UEAA@XZ
; public: virtual __cdecl uhd::os_error::~os_error(void)__ptr64 
??1os_error@uhd@@UEAA@XZ
; public: virtual __cdecl uhd::rfnoc::property_base_t::~property_base_t(void)__ptr64 
??1property_base_t@rfnoc@uhd@@UEAA@XZ
; public: virtual __cdecl uhd::property_iface::~property_iface(void)__ptr64 
??1property_iface@uhd@@UEAA@XZ
; public: virtual __cdecl uhd::property_tree::~property_tree(void)__ptr64 
??1property_tree@uhd@@UEAA@XZ
; public: virtual __cdecl uhd::usrp::cal::pwr_cal::~pwr_cal(void)__ptr64 
??1pwr_cal@cal@usrp@uhd@@UEAA@XZ
; public: virtual __cdecl uhd::features::ref_clk_calibration_iface::~ref_clk_calibration_iface(void)__ptr64 
??1ref_clk_calibration_iface@features@uhd@@UEAA@XZ
; public: virtual __cdecl uhd::rfnoc::reg_iface_adapter::~reg_iface_adapter(void)__ptr64 
??1reg_iface_adapter@rfnoc@uhd@@UEAA@XZ
; public: virtual __cdecl uhd::rfnoc::replay_block_control::~replay_block_control(void)__ptr64 
??1replay_block_control@rfnoc@uhd@@UEAA@XZ
; public: virtual __cdecl uhd::resolve_error::~resolve_error(void)__ptr64 
??1resolve_error@uhd@@UEAA@XZ
; public: virtual __cdecl uhd::rfnoc_error::~rfnoc_error(void)__ptr64 
??1rfnoc_error@uhd@@UEAA@XZ
; public: virtual __cdecl uhd::rfnoc::rfnoc_graph::~rfnoc_graph(void)__ptr64 
??1rfnoc_graph@rfnoc@uhd@@UEAA@XZ
; public: virtual __cdecl uhd::routing_error::~routing_error(void)__ptr64 
??1routing_error@uhd@@UEAA@XZ
; public: virtual __cdecl uhd::runtime_error::~runtime_error(void)__ptr64 
??1runtime_error@uhd@@UEAA@XZ
; public: virtual __cdecl uhd::usrp::rx_dboard_base::~rx_dboard_base(void)__ptr64 
??1rx_dboard_base@usrp@uhd@@UEAA@XZ
; public: virtual __cdecl uhd::rfnoc::rx_event_action_info::~rx_event_action_info(void)__ptr64 
??1rx_event_action_info@rfnoc@uhd@@UEAA@XZ
; public: virtual __cdecl uhd::rx_streamer::~rx_streamer(void)__ptr64 
??1rx_streamer@uhd@@UEAA@XZ
; public: __cdecl uhd::sensor_value_t::~sensor_value_t(void)__ptr64 
??1sensor_value_t@uhd@@QEAA@XZ
; public: virtual __cdecl uhd::rfnoc::siggen_block_control::~siggen_block_control(void)__ptr64 
??1siggen_block_control@rfnoc@uhd@@UEAA@XZ
; public: virtual __cdecl uhd::soft_regmap_accessor_t::~soft_regmap_accessor_t(void)__ptr64 
??1soft_regmap_accessor_t@uhd@@UEAA@XZ
; public: virtual __cdecl uhd::soft_regmap_db_t::~soft_regmap_db_t(void)__ptr64 
??1soft_regmap_db_t@uhd@@UEAA@XZ
; public: virtual __cdecl uhd::soft_regmap_t::~soft_regmap_t(void)__ptr64 
??1soft_regmap_t@uhd@@UEAA@XZ
; public: virtual __cdecl uhd::features::spi_getter_iface::~spi_getter_iface(void)__ptr64 
??1spi_getter_iface@features@uhd@@UEAA@XZ
; public: virtual __cdecl uhd::spi_iface::~spi_iface(void)__ptr64 
??1spi_iface@uhd@@UEAA@XZ
; public: virtual __cdecl uhd::rfnoc::split_stream_block_control::~split_stream_block_control(void)__ptr64 
??1split_stream_block_control@rfnoc@uhd@@UEAA@XZ
; public: __cdecl uhd::stream_args_t::~stream_args_t(void)__ptr64 
??1stream_args_t@uhd@@QEAA@XZ
; public: virtual __cdecl uhd::rfnoc::stream_cmd_action_info::~stream_cmd_action_info(void)__ptr64 
??1stream_cmd_action_info@rfnoc@uhd@@UEAA@XZ
; public: __cdecl uhd::usrp::subdev_spec_pair_t::~subdev_spec_pair_t(void)__ptr64 
??1subdev_spec_pair_t@usrp@uhd@@QEAA@XZ
; public: __cdecl uhd::usrp::subdev_spec_t::~subdev_spec_t(void)__ptr64 
??1subdev_spec_t@usrp@uhd@@QEAA@XZ
; public: virtual __cdecl uhd::rfnoc::switchboard_block_control::~switchboard_block_control(void)__ptr64 
??1switchboard_block_control@rfnoc@uhd@@UEAA@XZ
; public: virtual __cdecl uhd::syntax_error::~syntax_error(void)__ptr64 
??1syntax_error@uhd@@UEAA@XZ
; public: virtual __cdecl uhd::system_error::~system_error(void)__ptr64 
??1system_error@uhd@@UEAA@XZ
; public: virtual __cdecl uhd::timed_wb_iface::~timed_wb_iface(void)__ptr64 
??1timed_wb_iface@uhd@@UEAA@XZ
; public: virtual __cdecl uhd::rfnoc::mb_controller::timekeeper::~timekeeper(void)__ptr64 
??1timekeeper@mb_controller@rfnoc@uhd@@UEAA@XZ
; public: virtual __cdecl uhd::features::trig_io_mode_iface::~trig_io_mode_iface(void)__ptr64 
??1trig_io_mode_iface@features@uhd@@UEAA@XZ
; public: virtual __cdecl uhd::rfnoc::tune_request_action_info::~tune_request_action_info(void)__ptr64 
??1tune_request_action_info@rfnoc@uhd@@UEAA@XZ
; public: __cdecl uhd::tune_request_t::~tune_request_t(void)__ptr64 
??1tune_request_t@uhd@@QEAA@XZ
; public: virtual __cdecl uhd::usrp::tx_dboard_base::~tx_dboard_base(void)__ptr64 
??1tx_dboard_base@usrp@uhd@@UEAA@XZ
; public: virtual __cdecl uhd::rfnoc::tx_event_action_info::~tx_event_action_info(void)__ptr64 
??1tx_event_action_info@rfnoc@uhd@@UEAA@XZ
; public: virtual __cdecl uhd::tx_streamer::~tx_streamer(void)__ptr64 
??1tx_streamer@uhd@@UEAA@XZ
; public: virtual __cdecl uhd::type_error::~type_error(void)__ptr64 
??1type_error@uhd@@UEAA@XZ
; public: virtual __cdecl uhd::uart_iface::~uart_iface(void)__ptr64 
??1uart_iface@uhd@@UEAA@XZ
; public: virtual __cdecl uhd::transport::udp_simple::~udp_simple(void)__ptr64 
??1udp_simple@transport@uhd@@UEAA@XZ
; public: virtual __cdecl uhd::transport::udp_zero_copy::~udp_zero_copy(void)__ptr64 
??1udp_zero_copy@transport@uhd@@UEAA@XZ
; public: virtual __cdecl uhd::transport::usb_control::~usb_control(void)__ptr64 
??1usb_control@transport@uhd@@UEAA@XZ
; public: virtual __cdecl uhd::transport::usb_device_handle::~usb_device_handle(void)__ptr64 
??1usb_device_handle@transport@uhd@@UEAA@XZ
; public: virtual __cdecl uhd::usb_error::~usb_error(void)__ptr64 
??1usb_error@uhd@@UEAA@XZ
; public: virtual __cdecl uhd::transport::usb_zero_copy::~usb_zero_copy(void)__ptr64 
??1usb_zero_copy@transport@uhd@@UEAA@XZ
; public: __cdecl uhd::usrprio_rpc::usrprio_rpc_client::~usrprio_rpc_client(void)__ptr64 
??1usrprio_rpc_client@usrprio_rpc@uhd@@QEAA@XZ
; public: virtual __cdecl uhd::value_error::~value_error(void)__ptr64 
??1value_error@uhd@@UEAA@XZ
; public: virtual __cdecl uhd::rfnoc::vector_iir_block_control::~vector_iir_block_control(void)__ptr64 
??1vector_iir_block_control@rfnoc@uhd@@UEAA@XZ
; public: virtual __cdecl uhd::wb_iface::~wb_iface(void)__ptr64 
??1wb_iface@uhd@@UEAA@XZ
; public: virtual __cdecl uhd::rfnoc::window_block_control::~window_block_control(void)__ptr64 
??1window_block_control@rfnoc@uhd@@UEAA@XZ
; public: virtual __cdecl uhd::usrp::xcvr_dboard_base::~xcvr_dboard_base(void)__ptr64 
??1xcvr_dboard_base@usrp@uhd@@UEAA@XZ
; public: virtual __cdecl uhd::usrp::cal::zbx_rx_dsa_cal::~zbx_rx_dsa_cal(void)__ptr64 
??1zbx_rx_dsa_cal@cal@usrp@uhd@@UEAA@XZ
; public: virtual __cdecl uhd::usrp::cal::zbx_tx_dsa_cal::~zbx_tx_dsa_cal(void)__ptr64 
??1zbx_tx_dsa_cal@cal@usrp@uhd@@UEAA@XZ
; public: virtual __cdecl uhd::transport::zero_copy_if::~zero_copy_if(void)__ptr64 
??1zero_copy_if@transport@uhd@@UEAA@XZ
; public: struct boost::operators_impl::<class uhd::time_spec_t,struct boost::operators_impl::<class uhd::time_spec_t,class boost::operators_impl::operators_detail::<class uhd::time_spec_t>>> &__ptr64 __cdecl boost::operators_impl::<class uhd::time_spec_t,struct boost::operators_impl::<class uhd::time_spec_t,class boost::operators_impl::operators_detail::<class uhd::time_spec_t>>>::operator =(,struct boost::operators_impl::<class uhd::time_spec_t,struct boost::operators_impl::<class uhd::time_spec_t,class boost::operators_impl::operators_detail::<class uhd::time_spec_t>>> *__ptr64 const)__ptr64 
??4?$addable1@Vtime_spec_t@uhd@@U?$subtractable1@Vtime_spec_t@uhd@@V?$empty_base@Vtime_spec_t@uhd@@@operators_detail@operators_impl@boost@@@operators_impl@boost@@@operators_impl@boost@@QEAAAEAU012@$$QEAU012@@Z
; public: struct boost::operators_impl::<class uhd::time_spec_t,struct boost::operators_impl::<class uhd::time_spec_t,class boost::operators_impl::operators_detail::<class uhd::time_spec_t>>> &__ptr64 __cdecl boost::operators_impl::<class uhd::time_spec_t,struct boost::operators_impl::<class uhd::time_spec_t,class boost::operators_impl::operators_detail::<class uhd::time_spec_t>>>::operator =(struct boost::operators_impl::<class uhd::time_spec_t,struct boost::operators_impl::<class uhd::time_spec_t,class boost::operators_impl::operators_detail::<class uhd::time_spec_t>>> const &__ptr64 )__ptr64 
??4?$addable1@Vtime_spec_t@uhd@@U?$subtractable1@Vtime_spec_t@uhd@@V?$empty_base@Vtime_spec_t@uhd@@@operators_detail@operators_impl@boost@@@operators_impl@boost@@@operators_impl@boost@@QEAAAEAU012@AEBU012@@Z
; public: struct boost::operators_impl::<class uhd::time_spec_t,double,struct boost::operators_impl::<class uhd::time_spec_t,double,class boost::operators_impl::operators_detail::<class uhd::time_spec_t>>> &__ptr64 __cdecl boost::operators_impl::<class uhd::time_spec_t,double,struct boost::operators_impl::<class uhd::time_spec_t,double,class boost::operators_impl::operators_detail::<class uhd::time_spec_t>>>::operator =(,struct boost::operators_impl::<class uhd::time_spec_t,double,struct boost::operators_impl::<class uhd::time_spec_t,double,class boost::operators_impl::operators_detail::<class uhd::time_spec_t>>> *__ptr64 const)__ptr64 
??4?$addable2@Vtime_spec_t@uhd@@NU?$subtractable2@Vtime_spec_t@uhd@@NV?$empty_base@Vtime_spec_t@uhd@@@operators_detail@operators_impl@boost@@@operators_impl@boost@@@operators_impl@boost@@QEAAAEAU012@$$QEAU012@@Z
; public: struct boost::operators_impl::<class uhd::time_spec_t,double,struct boost::operators_impl::<class uhd::time_spec_t,double,class boost::operators_impl::operators_detail::<class uhd::time_spec_t>>> &__ptr64 __cdecl boost::operators_impl::<class uhd::time_spec_t,double,struct boost::operators_impl::<class uhd::time_spec_t,double,class boost::operators_impl::operators_detail::<class uhd::time_spec_t>>>::operator =(struct boost::operators_impl::<class uhd::time_spec_t,double,struct boost::operators_impl::<class uhd::time_spec_t,double,class boost::operators_impl::operators_detail::<class uhd::time_spec_t>>> const &__ptr64 )__ptr64 
??4?$addable2@Vtime_spec_t@uhd@@NU?$subtractable2@Vtime_spec_t@uhd@@NV?$empty_base@Vtime_spec_t@uhd@@@operators_detail@operators_impl@boost@@@operators_impl@boost@@@operators_impl@boost@@QEAAAEAU012@AEBU012@@Z
; public: struct boost::operators_impl::<class uhd::time_spec_t,class boost::operators_impl::operators_detail::<class uhd::time_spec_t>> &__ptr64 __cdecl boost::operators_impl::<class uhd::time_spec_t,class boost::operators_impl::operators_detail::<class uhd::time_spec_t>>::operator =(,struct boost::operators_impl::<class uhd::time_spec_t,class boost::operators_impl::operators_detail::<class uhd::time_spec_t>> *__ptr64 const)__ptr64 
??4?$additive1@Vtime_spec_t@uhd@@V?$empty_base@Vtime_spec_t@uhd@@@operators_detail@operators_impl@boost@@@operators_impl@boost@@QEAAAEAU012@$$QEAU012@@Z
; public: struct boost::operators_impl::<class uhd::time_spec_t,class boost::operators_impl::operators_detail::<class uhd::time_spec_t>> &__ptr64 __cdecl boost::operators_impl::<class uhd::time_spec_t,class boost::operators_impl::operators_detail::<class uhd::time_spec_t>>::operator =(struct boost::operators_impl::<class uhd::time_spec_t,class boost::operators_impl::operators_detail::<class uhd::time_spec_t>> const &__ptr64 )__ptr64 
??4?$additive1@Vtime_spec_t@uhd@@V?$empty_base@Vtime_spec_t@uhd@@@operators_detail@operators_impl@boost@@@operators_impl@boost@@QEAAAEAU012@AEBU012@@Z
; public: struct boost::operators_impl::<class uhd::time_spec_t,double,class boost::operators_impl::operators_detail::<class uhd::time_spec_t>> &__ptr64 __cdecl boost::operators_impl::<class uhd::time_spec_t,double,class boost::operators_impl::operators_detail::<class uhd::time_spec_t>>::operator =(,struct boost::operators_impl::<class uhd::time_spec_t,double,class boost::operators_impl::operators_detail::<class uhd::time_spec_t>> *__ptr64 const)__ptr64 
??4?$additive2@Vtime_spec_t@uhd@@NV?$empty_base@Vtime_spec_t@uhd@@@operators_detail@operators_impl@boost@@@operators_impl@boost@@QEAAAEAU012@$$QEAU012@@Z
; public: struct boost::operators_impl::<class uhd::time_spec_t,double,class boost::operators_impl::operators_detail::<class uhd::time_spec_t>> &__ptr64 __cdecl boost::operators_impl::<class uhd::time_spec_t,double,class boost::operators_impl::operators_detail::<class uhd::time_spec_t>>::operator =(struct boost::operators_impl::<class uhd::time_spec_t,double,class boost::operators_impl::operators_detail::<class uhd::time_spec_t>> const &__ptr64 )__ptr64 
??4?$additive2@Vtime_spec_t@uhd@@NV?$empty_base@Vtime_spec_t@uhd@@@operators_detail@operators_impl@boost@@@operators_impl@boost@@QEAAAEAU012@AEBU012@@Z
; public: struct boost::operators_impl::<class uhd::time_spec_t,double,class boost::operators_impl::operators_detail::<class uhd::time_spec_t>,struct boost::operators_impl::operators_detail::false_t> &__ptr64 __cdecl boost::operators_impl::<class uhd::time_spec_t,double,class boost::operators_impl::operators_detail::<class uhd::time_spec_t>,struct boost::operators_impl::operators_detail::false_t>::operator =(,struct boost::operators_impl::<class uhd::time_spec_t,double,class boost::operators_impl::operators_detail::<class uhd::time_spec_t>,struct boost::operators_impl::operators_detail::false_t> *__ptr64 const)__ptr64 
??4?$additive@Vtime_spec_t@uhd@@NV?$empty_base@Vtime_spec_t@uhd@@@operators_detail@operators_impl@boost@@Ufalse_t@456@@operators_impl@boost@@QEAAAEAU012@$$QEAU012@@Z
; public: struct boost::operators_impl::<class uhd::time_spec_t,double,class boost::operators_impl::operators_detail::<class uhd::time_spec_t>,struct boost::operators_impl::operators_detail::false_t> &__ptr64 __cdecl boost::operators_impl::<class uhd::time_spec_t,double,class boost::operators_impl::operators_detail::<class uhd::time_spec_t>,struct boost::operators_impl::operators_detail::false_t>::operator =(struct boost::operators_impl::<class uhd::time_spec_t,double,class boost::operators_impl::operators_detail::<class uhd::time_spec_t>,struct boost::operators_impl::operators_detail::false_t> const &__ptr64 )__ptr64 
??4?$additive@Vtime_spec_t@uhd@@NV?$empty_base@Vtime_spec_t@uhd@@@operators_detail@operators_impl@boost@@Ufalse_t@456@@operators_impl@boost@@QEAAAEAU012@AEBU012@@Z
; public: struct boost::operators_impl::<class uhd::time_spec_t,class uhd::time_spec_t,class boost::operators_impl::operators_detail::<class uhd::time_spec_t>,struct boost::operators_impl::operators_detail::false_t> &__ptr64 __cdecl boost::operators_impl::<class uhd::time_spec_t,class uhd::time_spec_t,class boost::operators_impl::operators_detail::<class uhd::time_spec_t>,struct boost::operators_impl::operators_detail::false_t>::operator =(,struct boost::operators_impl::<class uhd::time_spec_t,class uhd::time_spec_t,class boost::operators_impl::operators_detail::<class uhd::time_spec_t>,struct boost::operators_impl::operators_detail::false_t> *__ptr64 const)__ptr64 
??4?$additive@Vtime_spec_t@uhd@@V12@V?$empty_base@Vtime_spec_t@uhd@@@operators_detail@operators_impl@boost@@Ufalse_t@456@@operators_impl@boost@@QEAAAEAU012@$$QEAU012@@Z
; public: struct boost::operators_impl::<class uhd::time_spec_t,class uhd::time_spec_t,class boost::operators_impl::operators_detail::<class uhd::time_spec_t>,struct boost::operators_impl::operators_detail::false_t> &__ptr64 __cdecl boost::operators_impl::<class uhd::time_spec_t,class uhd::time_spec_t,class boost::operators_impl::operators_detail::<class uhd::time_spec_t>,struct boost::operators_impl::operators_detail::false_t>::operator =(struct boost::operators_impl::<class uhd::time_spec_t,class uhd::time_spec_t,class boost::operators_impl::operators_detail::<class uhd::time_spec_t>,struct boost::operators_impl::operators_detail::false_t> const &__ptr64 )__ptr64 
??4?$additive@Vtime_spec_t@uhd@@V12@V?$empty_base@Vtime_spec_t@uhd@@@operators_detail@operators_impl@boost@@Ufalse_t@456@@operators_impl@boost@@QEAAAEAU012@AEBU012@@Z
; public: class uhd::<class std::<char,struct std::<char>,class std::<char>>,class std::<char,struct std::<char>,class std::<char>>> &__ptr64 __cdecl uhd::<class std::<char,struct std::<char>,class std::<char>>,class std::<char,struct std::<char>,class std::<char>>>::operator =(,class uhd::<class std::<char,struct std::<char>,class std::<char>>,class std::<char,struct std::<char>,class std::<char>>> *__ptr64 const)__ptr64 
??4?$dict@V?$basic_string@DU?$char_traits@D@std@@V?$allocator@D@2@@std@@V12@@uhd@@QEAAAEAV01@$$QEAV01@@Z
; public: class uhd::<class std::<char,struct std::<char>,class std::<char>>,class std::<char,struct std::<char>,class std::<char>>> &__ptr64 __cdecl uhd::<class std::<char,struct std::<char>,class std::<char>>,class std::<char,struct std::<char>,class std::<char>>>::operator =(class uhd::<class std::<char,struct std::<char>,class std::<char>>,class std::<char,struct std::<char>,class std::<char>>> const &__ptr64 )__ptr64 
??4?$dict@V?$basic_string@DU?$char_traits@D@std@@V?$allocator@D@2@@std@@V12@@uhd@@QEAAAEAV01@AEBV01@@Z
; public: class boost::operators_impl::operators_detail::<struct uhd::convert::id_type> &__ptr64 __cdecl boost::operators_impl::operators_detail::<struct uhd::convert::id_type>::operator =(,class boost::operators_impl::operators_detail::<struct uhd::convert::id_type> *__ptr64 const)__ptr64 
??4?$empty_base@Uid_type@convert@uhd@@@operators_detail@operators_impl@boost@@QEAAAEAV0123@$$QEAV0123@@Z
; public: class boost::operators_impl::operators_detail::<struct uhd::convert::id_type> &__ptr64 __cdecl boost::operators_impl::operators_detail::<struct uhd::convert::id_type>::operator =(class boost::operators_impl::operators_detail::<struct uhd::convert::id_type> const &__ptr64 )__ptr64 
??4?$empty_base@Uid_type@convert@uhd@@@operators_detail@operators_impl@boost@@QEAAAEAV0123@AEBV0123@@Z
; public: class boost::operators_impl::operators_detail::<struct uhd::usrp::subdev_spec_pair_t> &__ptr64 __cdecl boost::operators_impl::operators_detail::<struct uhd::usrp::subdev_spec_pair_t>::operator =(,class boost::operators_impl::operators_detail::<struct uhd::usrp::subdev_spec_pair_t> *__ptr64 const)__ptr64 
??4?$empty_base@Usubdev_spec_pair_t@usrp@uhd@@@operators_detail@operators_impl@boost@@QEAAAEAV0123@$$QEAV0123@@Z
; public: class boost::operators_impl::operators_detail::<struct uhd::usrp::subdev_spec_pair_t> &__ptr64 __cdecl boost::operators_impl::operators_detail::<struct uhd::usrp::subdev_spec_pair_t>::operator =(class boost::operators_impl::operators_detail::<struct uhd::usrp::subdev_spec_pair_t> const &__ptr64 )__ptr64 
??4?$empty_base@Usubdev_spec_pair_t@usrp@uhd@@@operators_detail@operators_impl@boost@@QEAAAEAV0123@AEBV0123@@Z
; public: class boost::operators_impl::operators_detail::<class uhd::usrp::dboard_id_t> &__ptr64 __cdecl boost::operators_impl::operators_detail::<class uhd::usrp::dboard_id_t>::operator =(,class boost::operators_impl::operators_detail::<class uhd::usrp::dboard_id_t> *__ptr64 const)__ptr64 
??4?$empty_base@Vdboard_id_t@usrp@uhd@@@operators_detail@operators_impl@boost@@QEAAAEAV0123@$$QEAV0123@@Z
; public: class boost::operators_impl::operators_detail::<class uhd::usrp::dboard_id_t> &__ptr64 __cdecl boost::operators_impl::operators_detail::<class uhd::usrp::dboard_id_t>::operator =(class boost::operators_impl::operators_detail::<class uhd::usrp::dboard_id_t> const &__ptr64 )__ptr64 
??4?$empty_base@Vdboard_id_t@usrp@uhd@@@operators_detail@operators_impl@boost@@QEAAAEAV0123@AEBV0123@@Z
; public: class boost::operators_impl::operators_detail::<class uhd::usrp::fe_connection_t> &__ptr64 __cdecl boost::operators_impl::operators_detail::<class uhd::usrp::fe_connection_t>::operator =(,class boost::operators_impl::operators_detail::<class uhd::usrp::fe_connection_t> *__ptr64 const)__ptr64 
??4?$empty_base@Vfe_connection_t@usrp@uhd@@@operators_detail@operators_impl@boost@@QEAAAEAV0123@$$QEAV0123@@Z
; public: class boost::operators_impl::operators_detail::<class uhd::usrp::fe_connection_t> &__ptr64 __cdecl boost::operators_impl::operators_detail::<class uhd::usrp::fe_connection_t>::operator =(class boost::operators_impl::operators_detail::<class uhd::usrp::fe_connection_t> const &__ptr64 )__ptr64 
??4?$empty_base@Vfe_connection_t@usrp@uhd@@@operators_detail@operators_impl@boost@@QEAAAEAV0123@AEBV0123@@Z
; public: class boost::operators_impl::operators_detail::<class uhd::time_spec_t> &__ptr64 __cdecl boost::operators_impl::operators_detail::<class uhd::time_spec_t>::operator =(,class boost::operators_impl::operators_detail::<class uhd::time_spec_t> *__ptr64 const)__ptr64 
??4?$empty_base@Vtime_spec_t@uhd@@@operators_detail@operators_impl@boost@@QEAAAEAV0123@$$QEAV0123@@Z
; public: class boost::operators_impl::operators_detail::<class uhd::time_spec_t> &__ptr64 __cdecl boost::operators_impl::operators_detail::<class uhd::time_spec_t>::operator =(class boost::operators_impl::operators_detail::<class uhd::time_spec_t> const &__ptr64 )__ptr64 
??4?$empty_base@Vtime_spec_t@uhd@@@operators_detail@operators_impl@boost@@QEAAAEAV0123@AEBV0123@@Z
; protected: class std::<class uhd::rfnoc::rfnoc_graph> &__ptr64 __cdecl std::<class uhd::rfnoc::rfnoc_graph>::operator =(class std::<class uhd::rfnoc::rfnoc_graph> const &__ptr64 )__ptr64 
??4?$enable_shared_from_this@Vrfnoc_graph@rfnoc@uhd@@@std@@IEAAAEAV01@AEBV01@@Z
; public: struct boost::operators_impl::<struct uhd::convert::id_type,class boost::operators_impl::operators_detail::<struct uhd::convert::id_type>> &__ptr64 __cdecl boost::operators_impl::<struct uhd::convert::id_type,class boost::operators_impl::operators_detail::<struct uhd::convert::id_type>>::operator =(,struct boost::operators_impl::<struct uhd::convert::id_type,class boost::operators_impl::operators_detail::<struct uhd::convert::id_type>> *__ptr64 const)__ptr64 
??4?$equality_comparable1@Uid_type@convert@uhd@@V?$empty_base@Uid_type@convert@uhd@@@operators_detail@operators_impl@boost@@@operators_impl@boost@@QEAAAEAU012@$$QEAU012@@Z
; public: struct boost::operators_impl::<struct uhd::convert::id_type,class boost::operators_impl::operators_detail::<struct uhd::convert::id_type>> &__ptr64 __cdecl boost::operators_impl::<struct uhd::convert::id_type,class boost::operators_impl::operators_detail::<struct uhd::convert::id_type>>::operator =(struct boost::operators_impl::<struct uhd::convert::id_type,class boost::operators_impl::operators_detail::<struct uhd::convert::id_type>> const &__ptr64 )__ptr64 
??4?$equality_comparable1@Uid_type@convert@uhd@@V?$empty_base@Uid_type@convert@uhd@@@operators_detail@operators_impl@boost@@@operators_impl@boost@@QEAAAEAU012@AEBU012@@Z
; public: struct boost::operators_impl::<struct uhd::usrp::subdev_spec_pair_t,class boost::operators_impl::operators_detail::<struct uhd::usrp::subdev_spec_pair_t>> &__ptr64 __cdecl boost::operators_impl::<struct uhd::usrp::subdev_spec_pair_t,class boost::operators_impl::operators_detail::<struct uhd::usrp::subdev_spec_pair_t>>::operator =(,struct boost::operators_impl::<struct uhd::usrp::subdev_spec_pair_t,class boost::operators_impl::operators_detail::<struct uhd::usrp::subdev_spec_pair_t>> *__ptr64 const)__ptr64 
??4?$equality_comparable1@Usubdev_spec_pair_t@usrp@uhd@@V?$empty_base@Usubdev_spec_pair_t@usrp@uhd@@@operators_detail@operators_impl@boost@@@operators_impl@boost@@QEAAAEAU012@$$QEAU012@@Z
; public: struct boost::operators_impl::<struct uhd::usrp::subdev_spec_pair_t,class boost::operators_impl::operators_detail::<struct uhd::usrp::subdev_spec_pair_t>> &__ptr64 __cdecl boost::operators_impl::<struct uhd::usrp::subdev_spec_pair_t,class boost::operators_impl::operators_detail::<struct uhd::usrp::subdev_spec_pair_t>>::operator =(struct boost::operators_impl::<struct uhd::usrp::subdev_spec_pair_t,class boost::operators_impl::operators_detail::<struct uhd::usrp::subdev_spec_pair_t>> const &__ptr64 )__ptr64 
??4?$equality_comparable1@Usubdev_spec_pair_t@usrp@uhd@@V?$empty_base@Usubdev_spec_pair_t@usrp@uhd@@@operators_detail@operators_impl@boost@@@operators_impl@boost@@QEAAAEAU012@AEBU012@@Z
; public: struct boost::operators_impl::<class uhd::usrp::dboard_id_t,class boost::operators_impl::operators_detail::<class uhd::usrp::dboard_id_t>> &__ptr64 __cdecl boost::operators_impl::<class uhd::usrp::dboard_id_t,class boost::operators_impl::operators_detail::<class uhd::usrp::dboard_id_t>>::operator =(,struct boost::operators_impl::<class uhd::usrp::dboard_id_t,class boost::operators_impl::operators_detail::<class uhd::usrp::dboard_id_t>> *__ptr64 const)__ptr64 
??4?$equality_comparable1@Vdboard_id_t@usrp@uhd@@V?$empty_base@Vdboard_id_t@usrp@uhd@@@operators_detail@operators_impl@boost@@@operators_impl@boost@@QEAAAEAU012@$$QEAU012@@Z
; public: struct boost::operators_impl::<class uhd::usrp::dboard_id_t,class boost::operators_impl::operators_detail::<class uhd::usrp::dboard_id_t>> &__ptr64 __cdecl boost::operators_impl::<class uhd::usrp::dboard_id_t,class boost::operators_impl::operators_detail::<class uhd::usrp::dboard_id_t>>::operator =(struct boost::operators_impl::<class uhd::usrp::dboard_id_t,class boost::operators_impl::operators_detail::<class uhd::usrp::dboard_id_t>> const &__ptr64 )__ptr64 
??4?$equality_comparable1@Vdboard_id_t@usrp@uhd@@V?$empty_base@Vdboard_id_t@usrp@uhd@@@operators_detail@operators_impl@boost@@@operators_impl@boost@@QEAAAEAU012@AEBU012@@Z
; public: struct boost::operators_impl::<class uhd::usrp::fe_connection_t,class boost::operators_impl::operators_detail::<class uhd::usrp::fe_connection_t>> &__ptr64 __cdecl boost::operators_impl::<class uhd::usrp::fe_connection_t,class boost::operators_impl::operators_detail::<class uhd::usrp::fe_connection_t>>::operator =(,struct boost::operators_impl::<class uhd::usrp::fe_connection_t,class boost::operators_impl::operators_detail::<class uhd::usrp::fe_connection_t>> *__ptr64 const)__ptr64 
??4?$equality_comparable1@Vfe_connection_t@usrp@uhd@@V?$empty_base@Vfe_connection_t@usrp@uhd@@@operators_detail@operators_impl@boost@@@operators_impl@boost@@QEAAAEAU012@$$QEAU012@@Z
; public: struct boost::operators_impl::<class uhd::usrp::fe_connection_t,class boost::operators_impl::operators_detail::<class uhd::usrp::fe_connection_t>> &__ptr64 __cdecl boost::operators_impl::<class uhd::usrp::fe_connection_t,class boost::operators_impl::operators_detail::<class uhd::usrp::fe_connection_t>>::operator =(struct boost::operators_impl::<class uhd::usrp::fe_connection_t,class boost::operators_impl::operators_detail::<class uhd::usrp::fe_connection_t>> const &__ptr64 )__ptr64 
??4?$equality_comparable1@Vfe_connection_t@usrp@uhd@@V?$empty_base@Vfe_connection_t@usrp@uhd@@@operators_detail@operators_impl@boost@@@operators_impl@boost@@QEAAAEAU012@AEBU012@@Z
; public: struct boost::operators_impl::<class uhd::time_spec_t,class boost::operators_impl::operators_detail::<class uhd::time_spec_t>> &__ptr64 __cdecl boost::operators_impl::<class uhd::time_spec_t,class boost::operators_impl::operators_detail::<class uhd::time_spec_t>>::operator =(,struct boost::operators_impl::<class uhd::time_spec_t,class boost::operators_impl::operators_detail::<class uhd::time_spec_t>> *__ptr64 const)__ptr64 
??4?$equality_comparable1@Vtime_spec_t@uhd@@V?$empty_base@Vtime_spec_t@uhd@@@operators_detail@operators_impl@boost@@@operators_impl@boost@@QEAAAEAU012@$$QEAU012@@Z
; public: struct boost::operators_impl::<class uhd::time_spec_t,class boost::operators_impl::operators_detail::<class uhd::time_spec_t>> &__ptr64 __cdecl boost::operators_impl::<class uhd::time_spec_t,class boost::operators_impl::operators_detail::<class uhd::time_spec_t>>::operator =(struct boost::operators_impl::<class uhd::time_spec_t,class boost::operators_impl::operators_detail::<class uhd::time_spec_t>> const &__ptr64 )__ptr64 
??4?$equality_comparable1@Vtime_spec_t@uhd@@V?$empty_base@Vtime_spec_t@uhd@@@operators_detail@operators_impl@boost@@@operators_impl@boost@@QEAAAEAU012@AEBU012@@Z
; public: struct boost::operators_impl::<struct uhd::convert::id_type,struct uhd::convert::id_type,class boost::operators_impl::operators_detail::<struct uhd::convert::id_type>,struct boost::operators_impl::operators_detail::false_t> &__ptr64 __cdecl boost::operators_impl::<struct uhd::convert::id_type,struct uhd::convert::id_type,class boost::operators_impl::operators_detail::<struct uhd::convert::id_type>,struct boost::operators_impl::operators_detail::false_t>::operator =(,struct boost::operators_impl::<struct uhd::convert::id_type,struct uhd::convert::id_type,class boost::operators_impl::operators_detail::<struct uhd::convert::id_type>,struct boost::operators_impl::operators_detail::false_t> *__ptr64 const)__ptr64 
??4?$equality_comparable@Uid_type@convert@uhd@@U123@V?$empty_base@Uid_type@convert@uhd@@@operators_detail@operators_impl@boost@@Ufalse_t@567@@operators_impl@boost@@QEAAAEAU012@$$QEAU012@@Z
; public: struct boost::operators_impl::<struct uhd::convert::id_type,struct uhd::convert::id_type,class boost::operators_impl::operators_detail::<struct uhd::convert::id_type>,struct boost::operators_impl::operators_detail::false_t> &__ptr64 __cdecl boost::operators_impl::<struct uhd::convert::id_type,struct uhd::convert::id_type,class boost::operators_impl::operators_detail::<struct uhd::convert::id_type>,struct boost::operators_impl::operators_detail::false_t>::operator =(struct boost::operators_impl::<struct uhd::convert::id_type,struct uhd::convert::id_type,class boost::operators_impl::operators_detail::<struct uhd::convert::id_type>,struct boost::operators_impl::operators_detail::false_t> const &__ptr64 )__ptr64 
??4?$equality_comparable@Uid_type@convert@uhd@@U123@V?$empty_base@Uid_type@convert@uhd@@@operators_detail@operators_impl@boost@@Ufalse_t@567@@operators_impl@boost@@QEAAAEAU012@AEBU012@@Z
; public: struct boost::operators_impl::<struct uhd::usrp::subdev_spec_pair_t,struct uhd::usrp::subdev_spec_pair_t,class boost::operators_impl::operators_detail::<struct uhd::usrp::subdev_spec_pair_t>,struct boost::operators_impl::operators_detail::false_t> &__ptr64 __cdecl boost::operators_impl::<struct uhd::usrp::subdev_spec_pair_t,struct uhd::usrp::subdev_spec_pair_t,class boost::operators_impl::operators_detail::<struct uhd::usrp::subdev_spec_pair_t>,struct boost::operators_impl::operators_detail::false_t>::operator =(,struct boost::operators_impl::<struct uhd::usrp::subdev_spec_pair_t,struct uhd::usrp::subdev_spec_pair_t,class boost::operators_impl::operators_detail::<struct uhd::usrp::subdev_spec_pair_t>,struct boost::operators_impl::operators_detail::false_t> *__ptr64 const)__ptr64 
??4?$equality_comparable@Usubdev_spec_pair_t@usrp@uhd@@U123@V?$empty_base@Usubdev_spec_pair_t@usrp@uhd@@@operators_detail@operators_impl@boost@@Ufalse_t@567@@operators_impl@boost@@QEAAAEAU012@$$QEAU012@@Z
; public: struct boost::operators_impl::<struct uhd::usrp::subdev_spec_pair_t,struct uhd::usrp::subdev_spec_pair_t,class boost::operators_impl::operators_detail::<struct uhd::usrp::subdev_spec_pair_t>,struct boost::operators_impl::operators_detail::false_t> &__ptr64 __cdecl boost::operators_impl::<struct uhd::usrp::subdev_spec_pair_t,struct uhd::usrp::subdev_spec_pair_t,class boost::operators_impl::operators_detail::<struct uhd::usrp::subdev_spec_pair_t>,struct boost::operators_impl::operators_detail::false_t>::operator =(struct boost::operators_impl::<struct uhd::usrp::subdev_spec_pair_t,struct uhd::usrp::subdev_spec_pair_t,class boost::operators_impl::operators_detail::<struct uhd::usrp::subdev_spec_pair_t>,struct boost::operators_impl::operators_detail::false_t> const &__ptr64 )__ptr64 
??4?$equality_comparable@Usubdev_spec_pair_t@usrp@uhd@@U123@V?$empty_base@Usubdev_spec_pair_t@usrp@uhd@@@operators_detail@operators_impl@boost@@Ufalse_t@567@@operators_impl@boost@@QEAAAEAU012@AEBU012@@Z
; public: struct boost::operators_impl::<class uhd::usrp::dboard_id_t,class uhd::usrp::dboard_id_t,class boost::operators_impl::operators_detail::<class uhd::usrp::dboard_id_t>,struct boost::operators_impl::operators_detail::false_t> &__ptr64 __cdecl boost::operators_impl::<class uhd::usrp::dboard_id_t,class uhd::usrp::dboard_id_t,class boost::operators_impl::operators_detail::<class uhd::usrp::dboard_id_t>,struct boost::operators_impl::operators_detail::false_t>::operator =(,struct boost::operators_impl::<class uhd::usrp::dboard_id_t,class uhd::usrp::dboard_id_t,class boost::operators_impl::operators_detail::<class uhd::usrp::dboard_id_t>,struct boost::operators_impl::operators_detail::false_t> *__ptr64 const)__ptr64 
??4?$equality_comparable@Vdboard_id_t@usrp@uhd@@V123@V?$empty_base@Vdboard_id_t@usrp@uhd@@@operators_detail@operators_impl@boost@@Ufalse_t@567@@operators_impl@boost@@QEAAAEAU012@$$QEAU012@@Z
; public: struct boost::operators_impl::<class uhd::usrp::dboard_id_t,class uhd::usrp::dboard_id_t,class boost::operators_impl::operators_detail::<class uhd::usrp::dboard_id_t>,struct boost::operators_impl::operators_detail::false_t> &__ptr64 __cdecl boost::operators_impl::<class uhd::usrp::dboard_id_t,class uhd::usrp::dboard_id_t,class boost::operators_impl::operators_detail::<class uhd::usrp::dboard_id_t>,struct boost::operators_impl::operators_detail::false_t>::operator =(struct boost::operators_impl::<class uhd::usrp::dboard_id_t,class uhd::usrp::dboard_id_t,class boost::operators_impl::operators_detail::<class uhd::usrp::dboard_id_t>,struct boost::operators_impl::operators_detail::false_t> const &__ptr64 )__ptr64 
??4?$equality_comparable@Vdboard_id_t@usrp@uhd@@V123@V?$empty_base@Vdboard_id_t@usrp@uhd@@@operators_detail@operators_impl@boost@@Ufalse_t@567@@operators_impl@boost@@QEAAAEAU012@AEBU012@@Z
; public: struct boost::operators_impl::<class uhd::usrp::fe_connection_t,class uhd::usrp::fe_connection_t,class boost::operators_impl::operators_detail::<class uhd::usrp::fe_connection_t>,struct boost::operators_impl::operators_detail::false_t> &__ptr64 __cdecl boost::operators_impl::<class uhd::usrp::fe_connection_t,class uhd::usrp::fe_connection_t,class boost::operators_impl::operators_detail::<class uhd::usrp::fe_connection_t>,struct boost::operators_impl::operators_detail::false_t>::operator =(,struct boost::operators_impl::<class uhd::usrp::fe_connection_t,class uhd::usrp::fe_connection_t,class boost::operators_impl::operators_detail::<class uhd::usrp::fe_connection_t>,struct boost::operators_impl::operators_detail::false_t> *__ptr64 const)__ptr64 
??4?$equality_comparable@Vfe_connection_t@usrp@uhd@@V123@V?$empty_base@Vfe_connection_t@usrp@uhd@@@operators_detail@operators_impl@boost@@Ufalse_t@567@@operators_impl@boost@@QEAAAEAU012@$$QEAU012@@Z
; public: struct boost::operators_impl::<class uhd::usrp::fe_connection_t,class uhd::usrp::fe_connection_t,class boost::operators_impl::operators_detail::<class uhd::usrp::fe_connection_t>,struct boost::operators_impl::operators_detail::false_t> &__ptr64 __cdecl boost::operators_impl::<class uhd::usrp::fe_connection_t,class uhd::usrp::fe_connection_t,class boost::operators_impl::operators_detail::<class uhd::usrp::fe_connection_t>,struct boost::operators_impl::operators_detail::false_t>::operator =(struct boost::operators_impl::<class uhd::usrp::fe_connection_t,class uhd::usrp::fe_connection_t,class boost::operators_impl::operators_detail::<class uhd::usrp::fe_connection_t>,struct boost::operators_impl::operators_detail::false_t> const &__ptr64 )__ptr64 
??4?$equality_comparable@Vfe_connection_t@usrp@uhd@@V123@V?$empty_base@Vfe_connection_t@usrp@uhd@@@operators_detail@operators_impl@boost@@Ufalse_t@567@@operators_impl@boost@@QEAAAEAU012@AEBU012@@Z
; public: struct boost::operators_impl::<class uhd::time_spec_t,struct boost::operators_impl::<class uhd::time_spec_t,class boost::operators_impl::operators_detail::<class uhd::time_spec_t>>> &__ptr64 __cdecl boost::operators_impl::<class uhd::time_spec_t,struct boost::operators_impl::<class uhd::time_spec_t,class boost::operators_impl::operators_detail::<class uhd::time_spec_t>>>::operator =(,struct boost::operators_impl::<class uhd::time_spec_t,struct boost::operators_impl::<class uhd::time_spec_t,class boost::operators_impl::operators_detail::<class uhd::time_spec_t>>> *__ptr64 const)__ptr64 
??4?$less_than_comparable1@Vtime_spec_t@uhd@@U?$equality_comparable1@Vtime_spec_t@uhd@@V?$empty_base@Vtime_spec_t@uhd@@@operators_detail@operators_impl@boost@@@operators_impl@boost@@@operators_impl@boost@@QEAAAEAU012@$$QEAU012@@Z
; public: struct boost::operators_impl::<class uhd::time_spec_t,struct boost::operators_impl::<class uhd::time_spec_t,class boost::operators_impl::operators_detail::<class uhd::time_spec_t>>> &__ptr64 __cdecl boost::operators_impl::<class uhd::time_spec_t,struct boost::operators_impl::<class uhd::time_spec_t,class boost::operators_impl::operators_detail::<class uhd::time_spec_t>>>::operator =(struct boost::operators_impl::<class uhd::time_spec_t,struct boost::operators_impl::<class uhd::time_spec_t,class boost::operators_impl::operators_detail::<class uhd::time_spec_t>>> const &__ptr64 )__ptr64 
??4?$less_than_comparable1@Vtime_spec_t@uhd@@U?$equality_comparable1@Vtime_spec_t@uhd@@V?$empty_base@Vtime_spec_t@uhd@@@operators_detail@operators_impl@boost@@@operators_impl@boost@@@operators_impl@boost@@QEAAAEAU012@AEBU012@@Z
; public: struct boost::operators_impl::<class uhd::time_spec_t,class boost::operators_impl::operators_detail::<class uhd::time_spec_t>> &__ptr64 __cdecl boost::operators_impl::<class uhd::time_spec_t,class boost::operators_impl::operators_detail::<class uhd::time_spec_t>>::operator =(,struct boost::operators_impl::<class uhd::time_spec_t,class boost::operators_impl::operators_detail::<class uhd::time_spec_t>> *__ptr64 const)__ptr64 
??4?$subtractable1@Vtime_spec_t@uhd@@V?$empty_base@Vtime_spec_t@uhd@@@operators_detail@operators_impl@boost@@@operators_impl@boost@@QEAAAEAU012@$$QEAU012@@Z
; public: struct boost::operators_impl::<class uhd::time_spec_t,class boost::operators_impl::operators_detail::<class uhd::time_spec_t>> &__ptr64 __cdecl boost::operators_impl::<class uhd::time_spec_t,class boost::operators_impl::operators_detail::<class uhd::time_spec_t>>::operator =(struct boost::operators_impl::<class uhd::time_spec_t,class boost::operators_impl::operators_detail::<class uhd::time_spec_t>> const &__ptr64 )__ptr64 
??4?$subtractable1@Vtime_spec_t@uhd@@V?$empty_base@Vtime_spec_t@uhd@@@operators_detail@operators_impl@boost@@@operators_impl@boost@@QEAAAEAU012@AEBU012@@Z
; public: struct boost::operators_impl::<class uhd::time_spec_t,double,class boost::operators_impl::operators_detail::<class uhd::time_spec_t>> &__ptr64 __cdecl boost::operators_impl::<class uhd::time_spec_t,double,class boost::operators_impl::operators_detail::<class uhd::time_spec_t>>::operator =(,struct boost::operators_impl::<class uhd::time_spec_t,double,class boost::operators_impl::operators_detail::<class uhd::time_spec_t>> *__ptr64 const)__ptr64 
??4?$subtractable2@Vtime_spec_t@uhd@@NV?$empty_base@Vtime_spec_t@uhd@@@operators_detail@operators_impl@boost@@@operators_impl@boost@@QEAAAEAU012@$$QEAU012@@Z
; public: struct boost::operators_impl::<class uhd::time_spec_t,double,class boost::operators_impl::operators_detail::<class uhd::time_spec_t>> &__ptr64 __cdecl boost::operators_impl::<class uhd::time_spec_t,double,class boost::operators_impl::operators_detail::<class uhd::time_spec_t>>::operator =(struct boost::operators_impl::<class uhd::time_spec_t,double,class boost::operators_impl::operators_detail::<class uhd::time_spec_t>> const &__ptr64 )__ptr64 
??4?$subtractable2@Vtime_spec_t@uhd@@NV?$empty_base@Vtime_spec_t@uhd@@@operators_detail@operators_impl@boost@@@operators_impl@boost@@QEAAAEAU012@AEBU012@@Z
; public: struct boost::operators_impl::<class uhd::time_spec_t,class boost::operators_impl::operators_detail::<class uhd::time_spec_t>> &__ptr64 __cdecl boost::operators_impl::<class uhd::time_spec_t,class boost::operators_impl::operators_detail::<class uhd::time_spec_t>>::operator =(,struct boost::operators_impl::<class uhd::time_spec_t,class boost::operators_impl::operators_detail::<class uhd::time_spec_t>> *__ptr64 const)__ptr64 
??4?$totally_ordered1@Vtime_spec_t@uhd@@V?$empty_base@Vtime_spec_t@uhd@@@operators_detail@operators_impl@boost@@@operators_impl@boost@@QEAAAEAU012@$$QEAU012@@Z
; public: struct boost::operators_impl::<class uhd::time_spec_t,class boost::operators_impl::operators_detail::<class uhd::time_spec_t>> &__ptr64 __cdecl boost::operators_impl::<class uhd::time_spec_t,class boost::operators_impl::operators_detail::<class uhd::time_spec_t>>::operator =(struct boost::operators_impl::<class uhd::time_spec_t,class boost::operators_impl::operators_detail::<class uhd::time_spec_t>> const &__ptr64 )__ptr64 
??4?$totally_ordered1@Vtime_spec_t@uhd@@V?$empty_base@Vtime_spec_t@uhd@@@operators_detail@operators_impl@boost@@@operators_impl@boost@@QEAAAEAU012@AEBU012@@Z
; public: struct boost::operators_impl::<class uhd::time_spec_t,class uhd::time_spec_t,class boost::operators_impl::operators_detail::<class uhd::time_spec_t>,struct boost::operators_impl::operators_detail::false_t> &__ptr64 __cdecl boost::operators_impl::<class uhd::time_spec_t,class uhd::time_spec_t,class boost::operators_impl::operators_detail::<class uhd::time_spec_t>,struct boost::operators_impl::operators_detail::false_t>::operator =(,struct boost::operators_impl::<class uhd::time_spec_t,class uhd::time_spec_t,class boost::operators_impl::operators_detail::<class uhd::time_spec_t>,struct boost::operators_impl::operators_detail::false_t> *__ptr64 const)__ptr64 
??4?$totally_ordered@Vtime_spec_t@uhd@@V12@V?$empty_base@Vtime_spec_t@uhd@@@operators_detail@operators_impl@boost@@Ufalse_t@456@@operators_impl@boost@@QEAAAEAU012@$$QEAU012@@Z
; public: struct boost::operators_impl::<class uhd::time_spec_t,class uhd::time_spec_t,class boost::operators_impl::operators_detail::<class uhd::time_spec_t>,struct boost::operators_impl::operators_detail::false_t> &__ptr64 __cdecl boost::operators_impl::<class uhd::time_spec_t,class uhd::time_spec_t,class boost::operators_impl::operators_detail::<class uhd::time_spec_t>,struct boost::operators_impl::operators_detail::false_t>::operator =(struct boost::operators_impl::<class uhd::time_spec_t,class uhd::time_spec_t,class boost::operators_impl::operators_detail::<class uhd::time_spec_t>,struct boost::operators_impl::operators_detail::false_t> const &__ptr64 )__ptr64 
??4?$totally_ordered@Vtime_spec_t@uhd@@V12@V?$empty_base@Vtime_spec_t@uhd@@@operators_detail@operators_impl@boost@@Ufalse_t@456@@operators_impl@boost@@QEAAAEAU012@AEBU012@@Z
; public: class std::<struct uhd::usrp::subdev_spec_pair_t,class std::<struct uhd::usrp::subdev_spec_pair_t>> &__ptr64 __cdecl std::<struct uhd::usrp::subdev_spec_pair_t,class std::<struct uhd::usrp::subdev_spec_pair_t>>::operator =(,class std::<struct uhd::usrp::subdev_spec_pair_t,class std::<struct uhd::usrp::subdev_spec_pair_t>> *__ptr64 const)__ptr64 
??4?$vector@Usubdev_spec_pair_t@usrp@uhd@@V?$allocator@Usubdev_spec_pair_t@usrp@uhd@@@std@@@std@@QEAAAEAV01@$$QEAV01@@Z
; public: class std::<struct uhd::usrp::subdev_spec_pair_t,class std::<struct uhd::usrp::subdev_spec_pair_t>> &__ptr64 __cdecl std::<struct uhd::usrp::subdev_spec_pair_t,class std::<struct uhd::usrp::subdev_spec_pair_t>>::operator =(class std::<struct uhd::usrp::subdev_spec_pair_t,class std::<struct uhd::usrp::subdev_spec_pair_t>> const &__ptr64 )__ptr64 
??4?$vector@Usubdev_spec_pair_t@usrp@uhd@@V?$allocator@Usubdev_spec_pair_t@usrp@uhd@@@std@@@std@@QEAAAEAV01@AEBV01@@Z
; public: class std::<struct uhd::usrp::subdev_spec_pair_t,class std::<struct uhd::usrp::subdev_spec_pair_t>> &__ptr64 __cdecl std::<struct uhd::usrp::subdev_spec_pair_t,class std::<struct uhd::usrp::subdev_spec_pair_t>>::operator =(class std::<struct uhd::usrp::subdev_spec_pair_t>)__ptr64 
??4?$vector@Usubdev_spec_pair_t@usrp@uhd@@V?$allocator@Usubdev_spec_pair_t@usrp@uhd@@@std@@@std@@QEAAAEAV01@V?$initializer_list@Usubdev_spec_pair_t@usrp@uhd@@@1@@Z
; public: class std::<class uhd::range_t,class std::<class uhd::range_t>> &__ptr64 __cdecl std::<class uhd::range_t,class std::<class uhd::range_t>>::operator =(,class std::<class uhd::range_t,class std::<class uhd::range_t>> *__ptr64 const)__ptr64 
??4?$vector@Vrange_t@uhd@@V?$allocator@Vrange_t@uhd@@@std@@@std@@QEAAAEAV01@$$QEAV01@@Z
; public: class std::<class uhd::range_t,class std::<class uhd::range_t>> &__ptr64 __cdecl std::<class uhd::range_t,class std::<class uhd::range_t>>::operator =(class std::<class uhd::range_t,class std::<class uhd::range_t>> const &__ptr64 )__ptr64 
??4?$vector@Vrange_t@uhd@@V?$allocator@Vrange_t@uhd@@@std@@@std@@QEAAAEAV01@AEBV01@@Z
; public: class std::<class uhd::range_t,class std::<class uhd::range_t>> &__ptr64 __cdecl std::<class uhd::range_t,class std::<class uhd::range_t>>::operator =(class std::<class uhd::range_t>)__ptr64 
??4?$vector@Vrange_t@uhd@@V?$allocator@Vrange_t@uhd@@@std@@@std@@QEAAAEAV01@V?$initializer_list@Vrange_t@uhd@@@1@@Z
; public: struct _uhd_static_fixture &__ptr64 __cdecl _uhd_static_fixture::operator =(,struct _uhd_static_fixture *__ptr64 const)__ptr64 
??4_uhd_static_fixture@@QEAAAEAU0@$$QEAU0@@Z
; public: struct _uhd_static_fixture &__ptr64 __cdecl _uhd_static_fixture::operator =(struct _uhd_static_fixture const &__ptr64 )__ptr64 
??4_uhd_static_fixture@@QEAAAEAU0@AEBU0@@Z
; public: struct uhd::access_error &__ptr64 __cdecl uhd::access_error::operator =(,struct uhd::access_error *__ptr64 const)__ptr64 
??4access_error@uhd@@QEAAAEAU01@$$QEAU01@@Z
; public: struct uhd::access_error &__ptr64 __cdecl uhd::access_error::operator =(struct uhd::access_error const &__ptr64 )__ptr64 
??4access_error@uhd@@QEAAAEAU01@AEBU01@@Z
; public: class uhd::features::adc_self_calibration_iface &__ptr64 __cdecl uhd::features::adc_self_calibration_iface::operator =(class uhd::features::adc_self_calibration_iface const &__ptr64 )__ptr64 
??4adc_self_calibration_iface@features@uhd@@QEAAAEAV012@AEBV012@@Z
; public: class uhd::analog_filter_base &__ptr64 __cdecl uhd::analog_filter_base::operator =(,class uhd::analog_filter_base *__ptr64 const)__ptr64 
??4analog_filter_base@uhd@@QEAAAEAV01@$$QEAV01@@Z
; public: class uhd::analog_filter_base &__ptr64 __cdecl uhd::analog_filter_base::operator =(class uhd::analog_filter_base const &__ptr64 )__ptr64 
??4analog_filter_base@uhd@@QEAAAEAV01@AEBV01@@Z
; public: class uhd::analog_filter_lp &__ptr64 __cdecl uhd::analog_filter_lp::operator =(,class uhd::analog_filter_lp *__ptr64 const)__ptr64 
??4analog_filter_lp@uhd@@QEAAAEAV01@$$QEAV01@@Z
; public: class uhd::analog_filter_lp &__ptr64 __cdecl uhd::analog_filter_lp::operator =(class uhd::analog_filter_lp const &__ptr64 )__ptr64 
??4analog_filter_lp@uhd@@QEAAAEAV01@AEBV01@@Z
; public: class uhd::rfnoc::rf_control::antenna_iface &__ptr64 __cdecl uhd::rfnoc::rf_control::antenna_iface::operator =(class uhd::rfnoc::rf_control::antenna_iface const &__ptr64 )__ptr64 
??4antenna_iface@rf_control@rfnoc@uhd@@QEAAAEAV0123@AEBV0123@@Z
; public: class uhd::rfnoc::rf_control::antenna_radio_control_mixin &__ptr64 __cdecl uhd::rfnoc::rf_control::antenna_radio_control_mixin::operator =(class uhd::rfnoc::rf_control::antenna_radio_control_mixin const &__ptr64 )__ptr64 
??4antenna_radio_control_mixin@rf_control@rfnoc@uhd@@QEAAAEAV0123@AEBV0123@@Z
; public: struct uhd::assertion_error &__ptr64 __cdecl uhd::assertion_error::operator =(,struct uhd::assertion_error *__ptr64 const)__ptr64 
??4assertion_error@uhd@@QEAAAEAU01@$$QEAU01@@Z
; public: struct uhd::assertion_error &__ptr64 __cdecl uhd::assertion_error::operator =(struct uhd::assertion_error const &__ptr64 )__ptr64 
??4assertion_error@uhd@@QEAAAEAU01@AEBU01@@Z
; public: struct uhd::async_metadata_t &__ptr64 __cdecl uhd::async_metadata_t::operator =(,struct uhd::async_metadata_t *__ptr64 const)__ptr64 
??4async_metadata_t@uhd@@QEAAAEAU01@$$QEAU01@@Z
; public: struct uhd::async_metadata_t &__ptr64 __cdecl uhd::async_metadata_t::operator =(struct uhd::async_metadata_t const &__ptr64 )__ptr64 
??4async_metadata_t@uhd@@QEAAAEAU01@AEBU01@@Z
; public: class uhd::rfnoc::block_id_t __cdecl uhd::rfnoc::block_id_t::operator =(class std::<char,struct std::<char>,class std::<char>> const &__ptr64 )__ptr64 
??4block_id_t@rfnoc@uhd@@QEAA?AV012@AEBV?$basic_string@DU?$char_traits@D@std@@V?$allocator@D@2@@std@@@Z
; public: class uhd::rfnoc::block_id_t &__ptr64 __cdecl uhd::rfnoc::block_id_t::operator =(,class uhd::rfnoc::block_id_t *__ptr64 const)__ptr64 
??4block_id_t@rfnoc@uhd@@QEAAAEAV012@$$QEAV012@@Z
; public: class uhd::rfnoc::block_id_t &__ptr64 __cdecl uhd::rfnoc::block_id_t::operator =(class uhd::rfnoc::block_id_t const &__ptr64 )__ptr64 
??4block_id_t@rfnoc@uhd@@QEAAAEAV012@AEBV012@@Z
; public: class uhd::utils::chdr::chdr_packet &__ptr64 __cdecl uhd::utils::chdr::chdr_packet::operator =(,class uhd::utils::chdr::chdr_packet *__ptr64 const)__ptr64 
??4chdr_packet@chdr@utils@uhd@@QEAAAEAV0123@$$QEAV0123@@Z
; public: class uhd::utils::chdr::chdr_packet &__ptr64 __cdecl uhd::utils::chdr::chdr_packet::operator =(class uhd::utils::chdr::chdr_packet const &__ptr64 )__ptr64 
??4chdr_packet@chdr@utils@uhd@@QEAAAEAV0123@AEBV0123@@Z
; public: class uhd::usrp::cal::container &__ptr64 __cdecl uhd::usrp::cal::container::operator =(class uhd::usrp::cal::container const &__ptr64 )__ptr64 
??4container@cal@usrp@uhd@@QEAAAEAV0123@AEBV0123@@Z
; public: class uhd::rfnoc::chdr::ctrl_payload &__ptr64 __cdecl uhd::rfnoc::chdr::ctrl_payload::operator =(class uhd::rfnoc::chdr::ctrl_payload const &__ptr64 )__ptr64 
??4ctrl_payload@chdr@rfnoc@uhd@@QEAAAEAV0123@AEBV0123@@Z
; public: class uhd::usrp::cal::database &__ptr64 __cdecl uhd::usrp::cal::database::operator =(,class uhd::usrp::cal::database *__ptr64 const)__ptr64 
??4database@cal@usrp@uhd@@QEAAAEAV0123@$$QEAV0123@@Z
; public: class uhd::usrp::cal::database &__ptr64 __cdecl uhd::usrp::cal::database::operator =(class uhd::usrp::cal::database const &__ptr64 )__ptr64 
??4database@cal@usrp@uhd@@QEAAAEAV0123@AEBV0123@@Z
; public: struct uhd::usrp::dboard_eeprom_t &__ptr64 __cdecl uhd::usrp::dboard_eeprom_t::operator =(,struct uhd::usrp::dboard_eeprom_t *__ptr64 const)__ptr64 
??4dboard_eeprom_t@usrp@uhd@@QEAAAEAU012@$$QEAU012@@Z
; public: struct uhd::usrp::dboard_eeprom_t &__ptr64 __cdecl uhd::usrp::dboard_eeprom_t::operator =(struct uhd::usrp::dboard_eeprom_t const &__ptr64 )__ptr64 
??4dboard_eeprom_t@usrp@uhd@@QEAAAEAU012@AEBU012@@Z
; public: class uhd::usrp::dboard_id_t &__ptr64 __cdecl uhd::usrp::dboard_id_t::operator =(,class uhd::usrp::dboard_id_t *__ptr64 const)__ptr64 
??4dboard_id_t@usrp@uhd@@QEAAAEAV012@$$QEAV012@@Z
; public: class uhd::usrp::dboard_id_t &__ptr64 __cdecl uhd::usrp::dboard_id_t::operator =(class uhd::usrp::dboard_id_t const &__ptr64 )__ptr64 
??4dboard_id_t@usrp@uhd@@QEAAAEAV012@AEBV012@@Z
; public: class uhd::usrp::dboard_iface &__ptr64 __cdecl uhd::usrp::dboard_iface::operator =(class uhd::usrp::dboard_iface const &__ptr64 )__ptr64 
??4dboard_iface@usrp@uhd@@QEAAAEAV012@AEBV012@@Z
; public: struct uhd::usrp::dboard_iface_special_props_t &__ptr64 __cdecl uhd::usrp::dboard_iface_special_props_t::operator =(,struct uhd::usrp::dboard_iface_special_props_t *__ptr64 const)__ptr64 
??4dboard_iface_special_props_t@usrp@uhd@@QEAAAEAU012@$$QEAU012@@Z
; public: struct uhd::usrp::dboard_iface_special_props_t &__ptr64 __cdecl uhd::usrp::dboard_iface_special_props_t::operator =(struct uhd::usrp::dboard_iface_special_props_t const &__ptr64 )__ptr64 
??4dboard_iface_special_props_t@usrp@uhd@@QEAAAEAU012@AEBU012@@Z
; public: class uhd::device_addr_t &__ptr64 __cdecl uhd::device_addr_t::operator =(,class uhd::device_addr_t *__ptr64 const)__ptr64 
??4device_addr_t@uhd@@QEAAAEAV01@$$QEAV01@@Z
; public: class uhd::device_addr_t &__ptr64 __cdecl uhd::device_addr_t::operator =(class uhd::device_addr_t const &__ptr64 )__ptr64 
??4device_addr_t@uhd@@QEAAAEAV01@AEBV01@@Z
; public: class uhd::features::discoverable_feature &__ptr64 __cdecl uhd::features::discoverable_feature::operator =(class uhd::features::discoverable_feature const &__ptr64 )__ptr64 
??4discoverable_feature@features@uhd@@QEAAAEAV012@AEBV012@@Z
; public: class uhd::features::discoverable_feature_getter_iface &__ptr64 __cdecl uhd::features::discoverable_feature_getter_iface::operator =(class uhd::features::discoverable_feature_getter_iface const &__ptr64 )__ptr64 
??4discoverable_feature_getter_iface@features@uhd@@QEAAAEAV012@AEBV012@@Z
; public: struct uhd::environment_error &__ptr64 __cdecl uhd::environment_error::operator =(,struct uhd::environment_error *__ptr64 const)__ptr64 
??4environment_error@uhd@@QEAAAEAU01@$$QEAU01@@Z
; public: struct uhd::environment_error &__ptr64 __cdecl uhd::environment_error::operator =(struct uhd::environment_error const &__ptr64 )__ptr64 
??4environment_error@uhd@@QEAAAEAU01@AEBU01@@Z
; public: struct uhd::exception &__ptr64 __cdecl uhd::exception::operator =(,struct uhd::exception *__ptr64 const)__ptr64 
??4exception@uhd@@QEAAAEAU01@$$QEAU01@@Z
; public: struct uhd::exception &__ptr64 __cdecl uhd::exception::operator =(struct uhd::exception const &__ptr64 )__ptr64 
??4exception@uhd@@QEAAAEAU01@AEBU01@@Z
; public: class uhd::usrp::fe_connection_t &__ptr64 __cdecl uhd::usrp::fe_connection_t::operator =(,class uhd::usrp::fe_connection_t *__ptr64 const)__ptr64 
??4fe_connection_t@usrp@uhd@@QEAAAEAV012@$$QEAV012@@Z
; public: class uhd::usrp::fe_connection_t &__ptr64 __cdecl uhd::usrp::fe_connection_t::operator =(class uhd::usrp::fe_connection_t const &__ptr64 )__ptr64 
??4fe_connection_t@usrp@uhd@@QEAAAEAV012@AEBV012@@Z
; public: class uhd::filter_info_base &__ptr64 __cdecl uhd::filter_info_base::operator =(class uhd::filter_info_base const &__ptr64 )__ptr64 
??4filter_info_base@uhd@@QEAAAEAV01@AEBV01@@Z
; public: struct uhd::gain_fcns_t &__ptr64 __cdecl uhd::gain_fcns_t::operator =(,struct uhd::gain_fcns_t *__ptr64 const)__ptr64 
??4gain_fcns_t@uhd@@QEAAAEAU01@$$QEAU01@@Z
; public: struct uhd::gain_fcns_t &__ptr64 __cdecl uhd::gain_fcns_t::operator =(struct uhd::gain_fcns_t const &__ptr64 )__ptr64 
??4gain_fcns_t@uhd@@QEAAAEAU01@AEBU01@@Z
; public: class uhd::features::gpio_power_iface &__ptr64 __cdecl uhd::features::gpio_power_iface::operator =(class uhd::features::gpio_power_iface const &__ptr64 )__ptr64 
??4gpio_power_iface@features@uhd@@QEAAAEAV012@AEBV012@@Z
; public: struct uhd::rfnoc::graph_edge_t &__ptr64 __cdecl uhd::rfnoc::graph_edge_t::operator =(,struct uhd::rfnoc::graph_edge_t *__ptr64 const)__ptr64 
??4graph_edge_t@rfnoc@uhd@@QEAAAEAU012@$$QEAU012@@Z
; public: struct uhd::rfnoc::graph_edge_t &__ptr64 __cdecl uhd::rfnoc::graph_edge_t::operator =(struct uhd::rfnoc::graph_edge_t const &__ptr64 )__ptr64 
??4graph_edge_t@rfnoc@uhd@@QEAAAEAU012@AEBU012@@Z
; public: class uhd::i2c_iface &__ptr64 __cdecl uhd::i2c_iface::operator =(class uhd::i2c_iface const &__ptr64 )__ptr64 
??4i2c_iface@uhd@@QEAAAEAV01@AEBV01@@Z
; public: struct uhd::convert::id_type &__ptr64 __cdecl uhd::convert::id_type::operator =(,struct uhd::convert::id_type *__ptr64 const)__ptr64 
??4id_type@convert@uhd@@QEAAAEAU012@$$QEAU012@@Z
; public: struct uhd::convert::id_type &__ptr64 __cdecl uhd::convert::id_type::operator =(struct uhd::convert::id_type const &__ptr64 )__ptr64 
??4id_type@convert@uhd@@QEAAAEAU012@AEBU012@@Z
; public: struct uhd::transport::if_addrs_t &__ptr64 __cdecl uhd::transport::if_addrs_t::operator =(,struct uhd::transport::if_addrs_t *__ptr64 const)__ptr64 
??4if_addrs_t@transport@uhd@@QEAAAEAU012@$$QEAU012@@Z
; public: struct uhd::transport::if_addrs_t &__ptr64 __cdecl uhd::transport::if_addrs_t::operator =(struct uhd::transport::if_addrs_t const &__ptr64 )__ptr64 
??4if_addrs_t@transport@uhd@@QEAAAEAU012@AEBU012@@Z
; public: struct uhd::transport::vrt::if_packet_info_t &__ptr64 __cdecl uhd::transport::vrt::if_packet_info_t::operator =(,struct uhd::transport::vrt::if_packet_info_t *__ptr64 const)__ptr64 
??4if_packet_info_t@vrt@transport@uhd@@QEAAAEAU0123@$$QEAU0123@@Z
; public: struct uhd::transport::vrt::if_packet_info_t &__ptr64 __cdecl uhd::transport::vrt::if_packet_info_t::operator =(struct uhd::transport::vrt::if_packet_info_t const &__ptr64 )__ptr64 
??4if_packet_info_t@vrt@transport@uhd@@QEAAAEAU0123@AEBU0123@@Z
; public: struct uhd::index_error &__ptr64 __cdecl uhd::index_error::operator =(,struct uhd::index_error *__ptr64 const)__ptr64 
??4index_error@uhd@@QEAAAEAU01@$$QEAU01@@Z
; public: struct uhd::index_error &__ptr64 __cdecl uhd::index_error::operator =(struct uhd::index_error const &__ptr64 )__ptr64 
??4index_error@uhd@@QEAAAEAU01@AEBU01@@Z
; public: class uhd::features::internal_sync_iface &__ptr64 __cdecl uhd::features::internal_sync_iface::operator =(class uhd::features::internal_sync_iface const &__ptr64 )__ptr64 
??4internal_sync_iface@features@uhd@@QEAAAEAV012@AEBV012@@Z
; public: struct uhd::io_error &__ptr64 __cdecl uhd::io_error::operator =(,struct uhd::io_error *__ptr64 const)__ptr64 
??4io_error@uhd@@QEAAAEAU01@$$QEAU01@@Z
; public: struct uhd::io_error &__ptr64 __cdecl uhd::io_error::operator =(struct uhd::io_error const &__ptr64 )__ptr64 
??4io_error@uhd@@QEAAAEAU01@AEBU01@@Z
; public: class uhd::usrp::cal::iq_cal &__ptr64 __cdecl uhd::usrp::cal::iq_cal::operator =(,class uhd::usrp::cal::iq_cal *__ptr64 const)__ptr64 
??4iq_cal@cal@usrp@uhd@@QEAAAEAV0123@$$QEAV0123@@Z
; public: class uhd::usrp::cal::iq_cal &__ptr64 __cdecl uhd::usrp::cal::iq_cal::operator =(class uhd::usrp::cal::iq_cal const &__ptr64 )__ptr64 
??4iq_cal@cal@usrp@uhd@@QEAAAEAV0123@AEBV0123@@Z
; public: struct uhd::key_error &__ptr64 __cdecl uhd::key_error::operator =(,struct uhd::key_error *__ptr64 const)__ptr64 
??4key_error@uhd@@QEAAAEAU01@$$QEAU01@@Z
; public: struct uhd::key_error &__ptr64 __cdecl uhd::key_error::operator =(struct uhd::key_error const &__ptr64 )__ptr64 
??4key_error@uhd@@QEAAAEAU01@AEBU01@@Z
; public: struct uhd::log::logging_info &__ptr64 __cdecl uhd::log::logging_info::operator =(,struct uhd::log::logging_info *__ptr64 const)__ptr64 
??4logging_info@log@uhd@@QEAAAEAU012@$$QEAU012@@Z
; public: struct uhd::log::logging_info &__ptr64 __cdecl uhd::log::logging_info::operator =(struct uhd::log::logging_info const &__ptr64 )__ptr64 
??4logging_info@log@uhd@@QEAAAEAU012@AEBU012@@Z
; public: struct uhd::lookup_error &__ptr64 __cdecl uhd::lookup_error::operator =(,struct uhd::lookup_error *__ptr64 const)__ptr64 
??4lookup_error@uhd@@QEAAAEAU01@$$QEAU01@@Z
; public: struct uhd::lookup_error &__ptr64 __cdecl uhd::lookup_error::operator =(struct uhd::lookup_error const &__ptr64 )__ptr64 
??4lookup_error@uhd@@QEAAAEAU01@AEBU01@@Z
; public: struct uhd::memmap32_iface &__ptr64 __cdecl uhd::memmap32_iface::operator =(,struct uhd::memmap32_iface *__ptr64 const)__ptr64 
??4memmap32_iface@uhd@@QEAAAEAU01@$$QEAU01@@Z
; public: struct uhd::memmap32_iface &__ptr64 __cdecl uhd::memmap32_iface::operator =(struct uhd::memmap32_iface const &__ptr64 )__ptr64 
??4memmap32_iface@uhd@@QEAAAEAU01@AEBU01@@Z
; public: struct uhd::memmap32_iface_timed &__ptr64 __cdecl uhd::memmap32_iface_timed::operator =(,struct uhd::memmap32_iface_timed *__ptr64 const)__ptr64 
??4memmap32_iface_timed@uhd@@QEAAAEAU01@$$QEAU01@@Z
; public: struct uhd::memmap32_iface_timed &__ptr64 __cdecl uhd::memmap32_iface_timed::operator =(struct uhd::memmap32_iface_timed const &__ptr64 )__ptr64 
??4memmap32_iface_timed@uhd@@QEAAAEAU01@AEBU01@@Z
; public: struct uhd::meta_range_t &__ptr64 __cdecl uhd::meta_range_t::operator =(,struct uhd::meta_range_t *__ptr64 const)__ptr64 
??4meta_range_t@uhd@@QEAAAEAU01@$$QEAU01@@Z
; public: struct uhd::meta_range_t &__ptr64 __cdecl uhd::meta_range_t::operator =(struct uhd::meta_range_t const &__ptr64 )__ptr64 
??4meta_range_t@uhd@@QEAAAEAU01@AEBU01@@Z
; public: class uhd::rfnoc::chdr::mgmt_hop_t &__ptr64 __cdecl uhd::rfnoc::chdr::mgmt_hop_t::operator =(class uhd::rfnoc::chdr::mgmt_hop_t const &__ptr64 )__ptr64 
??4mgmt_hop_t@chdr@rfnoc@uhd@@QEAAAEAV0123@AEBV0123@@Z
; public: class uhd::rfnoc::chdr::mgmt_op_t &__ptr64 __cdecl uhd::rfnoc::chdr::mgmt_op_t::operator =(class uhd::rfnoc::chdr::mgmt_op_t const &__ptr64 )__ptr64 
??4mgmt_op_t@chdr@rfnoc@uhd@@QEAAAEAV0123@AEBV0123@@Z
; public: class uhd::rfnoc::chdr::mgmt_payload &__ptr64 __cdecl uhd::rfnoc::chdr::mgmt_payload::operator =(class uhd::rfnoc::chdr::mgmt_payload const &__ptr64 )__ptr64 
??4mgmt_payload@chdr@rfnoc@uhd@@QEAAAEAV0123@AEBV0123@@Z
; public: struct uhd::rfnoc::mock_block_container &__ptr64 __cdecl uhd::rfnoc::mock_block_container::operator =(,struct uhd::rfnoc::mock_block_container *__ptr64 const)__ptr64 
??4mock_block_container@rfnoc@uhd@@QEAAAEAU012@$$QEAU012@@Z
; public: class uhd::rfnoc::mock_reg_iface_t &__ptr64 __cdecl uhd::rfnoc::mock_reg_iface_t::operator =(class uhd::rfnoc::mock_reg_iface_t const &__ptr64 )__ptr64 
??4mock_reg_iface_t@rfnoc@uhd@@QEAAAEAV012@AEBV012@@Z
; public: class uhd::rfnoc::rf_control::nameless_gain_mixin &__ptr64 __cdecl uhd::rfnoc::rf_control::nameless_gain_mixin::operator =(class uhd::rfnoc::rf_control::nameless_gain_mixin const &__ptr64 )__ptr64 
??4nameless_gain_mixin@rf_control@rfnoc@uhd@@QEAAAEAV0123@AEBV0123@@Z
; public: struct uhd::narrowing_error &__ptr64 __cdecl uhd::narrowing_error::operator =(,struct uhd::narrowing_error *__ptr64 const)__ptr64 
??4narrowing_error@uhd@@QEAAAEAU01@$$QEAU01@@Z
; public: struct uhd::narrowing_error &__ptr64 __cdecl uhd::narrowing_error::operator =(struct uhd::narrowing_error const &__ptr64 )__ptr64 
??4narrowing_error@uhd@@QEAAAEAU01@AEBU01@@Z
; public: class uhd::niusrprio::nifpga_lvbitx &__ptr64 __cdecl uhd::niusrprio::nifpga_lvbitx::operator =(class uhd::niusrprio::nifpga_lvbitx const &__ptr64 )__ptr64 
??4nifpga_lvbitx@niusrprio@uhd@@QEAAAEAV012@AEBV012@@Z
; public: struct uhd::not_implemented_error &__ptr64 __cdecl uhd::not_implemented_error::operator =(,struct uhd::not_implemented_error *__ptr64 const)__ptr64 
??4not_implemented_error@uhd@@QEAAAEAU01@$$QEAU01@@Z
; public: struct uhd::not_implemented_error &__ptr64 __cdecl uhd::not_implemented_error::operator =(struct uhd::not_implemented_error const &__ptr64 )__ptr64 
??4not_implemented_error@uhd@@QEAAAEAU01@AEBU01@@Z
; public: class uhd::usrp_clock::octoclock_eeprom_t &__ptr64 __cdecl uhd::usrp_clock::octoclock_eeprom_t::operator =(,class uhd::usrp_clock::octoclock_eeprom_t *__ptr64 const)__ptr64 
??4octoclock_eeprom_t@usrp_clock@uhd@@QEAAAEAV012@$$QEAV012@@Z
; public: class uhd::usrp_clock::octoclock_eeprom_t &__ptr64 __cdecl uhd::usrp_clock::octoclock_eeprom_t::operator =(class uhd::usrp_clock::octoclock_eeprom_t const &__ptr64 )__ptr64 
??4octoclock_eeprom_t@usrp_clock@uhd@@QEAAAEAV012@AEBV012@@Z
; public: struct uhd::op_failed &__ptr64 __cdecl uhd::op_failed::operator =(,struct uhd::op_failed *__ptr64 const)__ptr64 
??4op_failed@uhd@@QEAAAEAU01@$$QEAU01@@Z
; public: struct uhd::op_failed &__ptr64 __cdecl uhd::op_failed::operator =(struct uhd::op_failed const &__ptr64 )__ptr64 
??4op_failed@uhd@@QEAAAEAU01@AEBU01@@Z
; public: struct uhd::op_seqerr &__ptr64 __cdecl uhd::op_seqerr::operator =(,struct uhd::op_seqerr *__ptr64 const)__ptr64 
??4op_seqerr@uhd@@QEAAAEAU01@$$QEAU01@@Z
; public: struct uhd::op_seqerr &__ptr64 __cdecl uhd::op_seqerr::operator =(struct uhd::op_seqerr const &__ptr64 )__ptr64 
??4op_seqerr@uhd@@QEAAAEAU01@AEBU01@@Z
; public: struct uhd::op_timeout &__ptr64 __cdecl uhd::op_timeout::operator =(,struct uhd::op_timeout *__ptr64 const)__ptr64 
??4op_timeout@uhd@@QEAAAEAU01@$$QEAU01@@Z
; public: struct uhd::op_timeout &__ptr64 __cdecl uhd::op_timeout::operator =(struct uhd::op_timeout const &__ptr64 )__ptr64 
??4op_timeout@uhd@@QEAAAEAU01@AEBU01@@Z
; public: struct uhd::op_timerr &__ptr64 __cdecl uhd::op_timerr::operator =(,struct uhd::op_timerr *__ptr64 const)__ptr64 
??4op_timerr@uhd@@QEAAAEAU01@$$QEAU01@@Z
; public: struct uhd::op_timerr &__ptr64 __cdecl uhd::op_timerr::operator =(struct uhd::op_timerr const &__ptr64 )__ptr64 
??4op_timerr@uhd@@QEAAAEAU01@AEBU01@@Z
; public: struct uhd::os_error &__ptr64 __cdecl uhd::os_error::operator =(,struct uhd::os_error *__ptr64 const)__ptr64 
??4os_error@uhd@@QEAAAEAU01@$$QEAU01@@Z
; public: struct uhd::os_error &__ptr64 __cdecl uhd::os_error::operator =(struct uhd::os_error const &__ptr64 )__ptr64 
??4os_error@uhd@@QEAAAEAU01@AEBU01@@Z
; public: class uhd::property_iface &__ptr64 __cdecl uhd::property_iface::operator =(class uhd::property_iface const &__ptr64 )__ptr64 
??4property_iface@uhd@@QEAAAEAV01@AEBV01@@Z
; public: class uhd::usrp::cal::pwr_cal &__ptr64 __cdecl uhd::usrp::cal::pwr_cal::operator =(,class uhd::usrp::cal::pwr_cal *__ptr64 const)__ptr64 
??4pwr_cal@cal@usrp@uhd@@QEAAAEAV0123@$$QEAV0123@@Z
; public: class uhd::usrp::cal::pwr_cal &__ptr64 __cdecl uhd::usrp::cal::pwr_cal::operator =(class uhd::usrp::cal::pwr_cal const &__ptr64 )__ptr64 
??4pwr_cal@cal@usrp@uhd@@QEAAAEAV0123@AEBV0123@@Z
; public: class uhd::range_t &__ptr64 __cdecl uhd::range_t::operator =(,class uhd::range_t *__ptr64 const)__ptr64 
??4range_t@uhd@@QEAAAEAV01@$$QEAV01@@Z
; public: class uhd::range_t &__ptr64 __cdecl uhd::range_t::operator =(class uhd::range_t const &__ptr64 )__ptr64 
??4range_t@uhd@@QEAAAEAV01@AEBV01@@Z
; public: class uhd::features::ref_clk_calibration_iface &__ptr64 __cdecl uhd::features::ref_clk_calibration_iface::operator =(class uhd::features::ref_clk_calibration_iface const &__ptr64 )__ptr64 
??4ref_clk_calibration_iface@features@uhd@@QEAAAEAV012@AEBV012@@Z
; public: class uhd::rfnoc::reg_iface_adapter &__ptr64 __cdecl uhd::rfnoc::reg_iface_adapter::operator =(,class uhd::rfnoc::reg_iface_adapter *__ptr64 const)__ptr64 
??4reg_iface_adapter@rfnoc@uhd@@QEAAAEAV012@$$QEAV012@@Z
; public: class uhd::rfnoc::reg_iface_adapter &__ptr64 __cdecl uhd::rfnoc::reg_iface_adapter::operator =(class uhd::rfnoc::reg_iface_adapter const &__ptr64 )__ptr64 
??4reg_iface_adapter@rfnoc@uhd@@QEAAAEAV012@AEBV012@@Z
; public: class uhd::rfnoc::registry &__ptr64 __cdecl uhd::rfnoc::registry::operator =(,class uhd::rfnoc::registry *__ptr64 const)__ptr64 
??4registry@rfnoc@uhd@@QEAAAEAV012@$$QEAV012@@Z
; public: class uhd::rfnoc::registry &__ptr64 __cdecl uhd::rfnoc::registry::operator =(class uhd::rfnoc::registry const &__ptr64 )__ptr64 
??4registry@rfnoc@uhd@@QEAAAEAV012@AEBV012@@Z
; public: struct uhd::resolve_error &__ptr64 __cdecl uhd::resolve_error::operator =(,struct uhd::resolve_error *__ptr64 const)__ptr64 
??4resolve_error@uhd@@QEAAAEAU01@$$QEAU01@@Z
; public: struct uhd::resolve_error &__ptr64 __cdecl uhd::resolve_error::operator =(struct uhd::resolve_error const &__ptr64 )__ptr64 
??4resolve_error@uhd@@QEAAAEAU01@AEBU01@@Z
; public: struct uhd::rfnoc_error &__ptr64 __cdecl uhd::rfnoc_error::operator =(,struct uhd::rfnoc_error *__ptr64 const)__ptr64 
??4rfnoc_error@uhd@@QEAAAEAU01@$$QEAU01@@Z
; public: struct uhd::rfnoc_error &__ptr64 __cdecl uhd::rfnoc_error::operator =(struct uhd::rfnoc_error const &__ptr64 )__ptr64 
??4rfnoc_error@uhd@@QEAAAEAU01@AEBU01@@Z
; public: struct uhd::routing_error &__ptr64 __cdecl uhd::routing_error::operator =(,struct uhd::routing_error *__ptr64 const)__ptr64 
??4routing_error@uhd@@QEAAAEAU01@$$QEAU01@@Z
; public: struct uhd::routing_error &__ptr64 __cdecl uhd::routing_error::operator =(struct uhd::routing_error const &__ptr64 )__ptr64 
??4routing_error@uhd@@QEAAAEAU01@AEBU01@@Z
; public: struct uhd::runtime_error &__ptr64 __cdecl uhd::runtime_error::operator =(,struct uhd::runtime_error *__ptr64 const)__ptr64 
??4runtime_error@uhd@@QEAAAEAU01@$$QEAU01@@Z
; public: struct uhd::runtime_error &__ptr64 __cdecl uhd::runtime_error::operator =(struct uhd::runtime_error const &__ptr64 )__ptr64 
??4runtime_error@uhd@@QEAAAEAU01@AEBU01@@Z
; public: struct uhd::rx_metadata_t &__ptr64 __cdecl uhd::rx_metadata_t::operator =(,struct uhd::rx_metadata_t *__ptr64 const)__ptr64 
??4rx_metadata_t@uhd@@QEAAAEAU01@$$QEAU01@@Z
; public: struct uhd::rx_metadata_t &__ptr64 __cdecl uhd::rx_metadata_t::operator =(struct uhd::rx_metadata_t const &__ptr64 )__ptr64 
??4rx_metadata_t@uhd@@QEAAAEAU01@AEBU01@@Z
; public: struct uhd::sensor_value_t &__ptr64 __cdecl uhd::sensor_value_t::operator =(struct uhd::sensor_value_t const &__ptr64 )__ptr64 
??4sensor_value_t@uhd@@QEAAAEAU01@AEBU01@@Z
; public: class uhd::soft_regmap_accessor_t &__ptr64 __cdecl uhd::soft_regmap_accessor_t::operator =(class uhd::soft_regmap_accessor_t const &__ptr64 )__ptr64 
??4soft_regmap_accessor_t@uhd@@QEAAAEAV01@AEBV01@@Z
; public: struct uhd::spi_config_t &__ptr64 __cdecl uhd::spi_config_t::operator =(,struct uhd::spi_config_t *__ptr64 const)__ptr64 
??4spi_config_t@uhd@@QEAAAEAU01@$$QEAU01@@Z
; public: struct uhd::spi_config_t &__ptr64 __cdecl uhd::spi_config_t::operator =(struct uhd::spi_config_t const &__ptr64 )__ptr64 
??4spi_config_t@uhd@@QEAAAEAU01@AEBU01@@Z
; public: class uhd::features::spi_getter_iface &__ptr64 __cdecl uhd::features::spi_getter_iface::operator =(class uhd::features::spi_getter_iface const &__ptr64 )__ptr64 
??4spi_getter_iface@features@uhd@@QEAAAEAV012@AEBV012@@Z
; public: class uhd::spi_iface &__ptr64 __cdecl uhd::spi_iface::operator =(class uhd::spi_iface const &__ptr64 )__ptr64 
??4spi_iface@uhd@@QEAAAEAV01@AEBV01@@Z
; public: struct uhd::features::spi_periph_config_t &__ptr64 __cdecl uhd::features::spi_periph_config_t::operator =(,struct uhd::features::spi_periph_config_t *__ptr64 const)__ptr64 
??4spi_periph_config_t@features@uhd@@QEAAAEAU012@$$QEAU012@@Z
; public: struct uhd::features::spi_periph_config_t &__ptr64 __cdecl uhd::features::spi_periph_config_t::operator =(struct uhd::features::spi_periph_config_t const &__ptr64 )__ptr64 
??4spi_periph_config_t@features@uhd@@QEAAAEAU012@AEBU012@@Z
; public: class uhd::rfnoc::chdr::strc_payload &__ptr64 __cdecl uhd::rfnoc::chdr::strc_payload::operator =(class uhd::rfnoc::chdr::strc_payload const &__ptr64 )__ptr64 
??4strc_payload@chdr@rfnoc@uhd@@QEAAAEAV0123@AEBV0123@@Z
; public: struct uhd::stream_args_t &__ptr64 __cdecl uhd::stream_args_t::operator =(,struct uhd::stream_args_t *__ptr64 const)__ptr64 
??4stream_args_t@uhd@@QEAAAEAU01@$$QEAU01@@Z
; public: struct uhd::stream_args_t &__ptr64 __cdecl uhd::stream_args_t::operator =(struct uhd::stream_args_t const &__ptr64 )__ptr64 
??4stream_args_t@uhd@@QEAAAEAU01@AEBU01@@Z
; public: struct uhd::stream_cmd_t &__ptr64 __cdecl uhd::stream_cmd_t::operator =(,struct uhd::stream_cmd_t *__ptr64 const)__ptr64 
??4stream_cmd_t@uhd@@QEAAAEAU01@$$QEAU01@@Z
; public: struct uhd::stream_cmd_t &__ptr64 __cdecl uhd::stream_cmd_t::operator =(struct uhd::stream_cmd_t const &__ptr64 )__ptr64 
??4stream_cmd_t@uhd@@QEAAAEAU01@AEBU01@@Z
; public: class uhd::rfnoc::chdr::strs_payload &__ptr64 __cdecl uhd::rfnoc::chdr::strs_payload::operator =(class uhd::rfnoc::chdr::strs_payload const &__ptr64 )__ptr64 
??4strs_payload@chdr@rfnoc@uhd@@QEAAAEAV0123@AEBV0123@@Z
; public: struct uhd::usrp::subdev_spec_pair_t &__ptr64 __cdecl uhd::usrp::subdev_spec_pair_t::operator =(,struct uhd::usrp::subdev_spec_pair_t *__ptr64 const)__ptr64 
??4subdev_spec_pair_t@usrp@uhd@@QEAAAEAU012@$$QEAU012@@Z
; public: struct uhd::usrp::subdev_spec_pair_t &__ptr64 __cdecl uhd::usrp::subdev_spec_pair_t::operator =(struct uhd::usrp::subdev_spec_pair_t const &__ptr64 )__ptr64 
??4subdev_spec_pair_t@usrp@uhd@@QEAAAEAU012@AEBU012@@Z
; public: class uhd::usrp::subdev_spec_t &__ptr64 __cdecl uhd::usrp::subdev_spec_t::operator =(,class uhd::usrp::subdev_spec_t *__ptr64 const)__ptr64 
??4subdev_spec_t@usrp@uhd@@QEAAAEAV012@$$QEAV012@@Z
; public: class uhd::usrp::subdev_spec_t &__ptr64 __cdecl uhd::usrp::subdev_spec_t::operator =(class uhd::usrp::subdev_spec_t const &__ptr64 )__ptr64 
??4subdev_spec_t@usrp@uhd@@QEAAAEAV012@AEBV012@@Z
; public: struct uhd::syntax_error &__ptr64 __cdecl uhd::syntax_error::operator =(,struct uhd::syntax_error *__ptr64 const)__ptr64 
??4syntax_error@uhd@@QEAAAEAU01@$$QEAU01@@Z
; public: struct uhd::syntax_error &__ptr64 __cdecl uhd::syntax_error::operator =(struct uhd::syntax_error const &__ptr64 )__ptr64 
??4syntax_error@uhd@@QEAAAEAU01@AEBU01@@Z
; public: struct uhd::system_error &__ptr64 __cdecl uhd::system_error::operator =(,struct uhd::system_error *__ptr64 const)__ptr64 
??4system_error@uhd@@QEAAAEAU01@$$QEAU01@@Z
; public: struct uhd::system_error &__ptr64 __cdecl uhd::system_error::operator =(struct uhd::system_error const &__ptr64 )__ptr64 
??4system_error@uhd@@QEAAAEAU01@AEBU01@@Z
; public: class uhd::time_spec_t &__ptr64 __cdecl uhd::time_spec_t::operator =(,class uhd::time_spec_t *__ptr64 const)__ptr64 
??4time_spec_t@uhd@@QEAAAEAV01@$$QEAV01@@Z
; public: class uhd::time_spec_t &__ptr64 __cdecl uhd::time_spec_t::operator =(class uhd::time_spec_t const &__ptr64 )__ptr64 
??4time_spec_t@uhd@@QEAAAEAV01@AEBV01@@Z
; public: class uhd::timed_wb_iface &__ptr64 __cdecl uhd::timed_wb_iface::operator =(,class uhd::timed_wb_iface *__ptr64 const)__ptr64 
??4timed_wb_iface@uhd@@QEAAAEAV01@$$QEAV01@@Z
; public: class uhd::timed_wb_iface &__ptr64 __cdecl uhd::timed_wb_iface::operator =(class uhd::timed_wb_iface const &__ptr64 )__ptr64 
??4timed_wb_iface@uhd@@QEAAAEAV01@AEBV01@@Z
; public: class uhd::rfnoc::mb_controller::timekeeper &__ptr64 __cdecl uhd::rfnoc::mb_controller::timekeeper::operator =(class uhd::rfnoc::mb_controller::timekeeper const &__ptr64 )__ptr64 
??4timekeeper@mb_controller@rfnoc@uhd@@QEAAAEAV0123@AEBV0123@@Z
; public: class uhd::features::trig_io_mode_iface &__ptr64 __cdecl uhd::features::trig_io_mode_iface::operator =(class uhd::features::trig_io_mode_iface const &__ptr64 )__ptr64 
??4trig_io_mode_iface@features@uhd@@QEAAAEAV012@AEBV012@@Z
; public: struct uhd::tune_request_t &__ptr64 __cdecl uhd::tune_request_t::operator =(,struct uhd::tune_request_t *__ptr64 const)__ptr64 
??4tune_request_t@uhd@@QEAAAEAU01@$$QEAU01@@Z
; public: struct uhd::tune_request_t &__ptr64 __cdecl uhd::tune_request_t::operator =(struct uhd::tune_request_t const &__ptr64 )__ptr64 
??4tune_request_t@uhd@@QEAAAEAU01@AEBU01@@Z
; public: struct uhd::tune_result_t &__ptr64 __cdecl uhd::tune_result_t::operator =(,struct uhd::tune_result_t *__ptr64 const)__ptr64 
??4tune_result_t@uhd@@QEAAAEAU01@$$QEAU01@@Z
; public: struct uhd::tune_result_t &__ptr64 __cdecl uhd::tune_result_t::operator =(struct uhd::tune_result_t const &__ptr64 )__ptr64 
??4tune_result_t@uhd@@QEAAAEAU01@AEBU01@@Z
; public: struct uhd::tx_metadata_t &__ptr64 __cdecl uhd::tx_metadata_t::operator =(,struct uhd::tx_metadata_t *__ptr64 const)__ptr64 
??4tx_metadata_t@uhd@@QEAAAEAU01@$$QEAU01@@Z
; public: struct uhd::tx_metadata_t &__ptr64 __cdecl uhd::tx_metadata_t::operator =(struct uhd::tx_metadata_t const &__ptr64 )__ptr64 
??4tx_metadata_t@uhd@@QEAAAEAU01@AEBU01@@Z
; public: struct uhd::type_error &__ptr64 __cdecl uhd::type_error::operator =(,struct uhd::type_error *__ptr64 const)__ptr64 
??4type_error@uhd@@QEAAAEAU01@$$QEAU01@@Z
; public: struct uhd::type_error &__ptr64 __cdecl uhd::type_error::operator =(struct uhd::type_error const &__ptr64 )__ptr64 
??4type_error@uhd@@QEAAAEAU01@AEBU01@@Z
; public: class uhd::uart_iface &__ptr64 __cdecl uhd::uart_iface::operator =(class uhd::uart_iface const &__ptr64 )__ptr64 
??4uart_iface@uhd@@QEAAAEAV01@AEBV01@@Z
; public: struct uhd::usb_error &__ptr64 __cdecl uhd::usb_error::operator =(,struct uhd::usb_error *__ptr64 const)__ptr64 
??4usb_error@uhd@@QEAAAEAU01@$$QEAU01@@Z
; public: struct uhd::usb_error &__ptr64 __cdecl uhd::usb_error::operator =(struct uhd::usb_error const &__ptr64 )__ptr64 
??4usb_error@uhd@@QEAAAEAU01@AEBU01@@Z
; public: struct uhd::value_error &__ptr64 __cdecl uhd::value_error::operator =(,struct uhd::value_error *__ptr64 const)__ptr64 
??4value_error@uhd@@QEAAAEAU01@$$QEAU01@@Z
; public: struct uhd::value_error &__ptr64 __cdecl uhd::value_error::operator =(struct uhd::value_error const &__ptr64 )__ptr64 
??4value_error@uhd@@QEAAAEAU01@AEBU01@@Z
; public: class uhd::wb_iface &__ptr64 __cdecl uhd::wb_iface::operator =(class uhd::wb_iface const &__ptr64 )__ptr64 
??4wb_iface@uhd@@QEAAAEAV01@AEBV01@@Z
; public: class uhd::usrp::cal::zbx_rx_dsa_cal &__ptr64 __cdecl uhd::usrp::cal::zbx_rx_dsa_cal::operator =(,class uhd::usrp::cal::zbx_rx_dsa_cal *__ptr64 const)__ptr64 
??4zbx_rx_dsa_cal@cal@usrp@uhd@@QEAAAEAV0123@$$QEAV0123@@Z
; public: class uhd::usrp::cal::zbx_rx_dsa_cal &__ptr64 __cdecl uhd::usrp::cal::zbx_rx_dsa_cal::operator =(class uhd::usrp::cal::zbx_rx_dsa_cal const &__ptr64 )__ptr64 
??4zbx_rx_dsa_cal@cal@usrp@uhd@@QEAAAEAV0123@AEBV0123@@Z
; public: struct uhd::usrp::zbx::zbx_tune_map_item_t &__ptr64 __cdecl uhd::usrp::zbx::zbx_tune_map_item_t::operator =(,struct uhd::usrp::zbx::zbx_tune_map_item_t *__ptr64 const)__ptr64 
??4zbx_tune_map_item_t@zbx@usrp@uhd@@QEAAAEAU0123@$$QEAU0123@@Z
; public: struct uhd::usrp::zbx::zbx_tune_map_item_t &__ptr64 __cdecl uhd::usrp::zbx::zbx_tune_map_item_t::operator =(struct uhd::usrp::zbx::zbx_tune_map_item_t const &__ptr64 )__ptr64 
??4zbx_tune_map_item_t@zbx@usrp@uhd@@QEAAAEAU0123@AEBU0123@@Z
; public: class uhd::usrp::cal::zbx_tx_dsa_cal &__ptr64 __cdecl uhd::usrp::cal::zbx_tx_dsa_cal::operator =(,class uhd::usrp::cal::zbx_tx_dsa_cal *__ptr64 const)__ptr64 
??4zbx_tx_dsa_cal@cal@usrp@uhd@@QEAAAEAV0123@$$QEAV0123@@Z
; public: class uhd::usrp::cal::zbx_tx_dsa_cal &__ptr64 __cdecl uhd::usrp::cal::zbx_tx_dsa_cal::operator =(class uhd::usrp::cal::zbx_tx_dsa_cal const &__ptr64 )__ptr64 
??4zbx_tx_dsa_cal@cal@usrp@uhd@@QEAAAEAV0123@AEBV0123@@Z
; public: class uhd::_log::log &__ptr64 __cdecl uhd::_log::log::operator <<(class std::<char,struct std::<char>> &__ptr64(__cdecl *)(class std::<char,struct std::<char>> &__ptr64 ))__ptr64 
??6log@_log@uhd@@QEAAAEAV012@P6AAEAV?$basic_ios@DU?$char_traits@D@std@@@std@@AEAV34@@Z@Z
; public: class uhd::_log::log &__ptr64 __cdecl uhd::_log::log::operator <<(class std::<char,struct std::<char>> &__ptr64(__cdecl *)(class std::<char,struct std::<char>> &__ptr64 ))__ptr64 
??6log@_log@uhd@@QEAAAEAV012@P6AAEAV?$basic_ostream@DU?$char_traits@D@std@@@std@@AEAV34@@Z@Z
; public: class uhd::_log::log &__ptr64 __cdecl uhd::_log::log::operator <<(class std::ios_base &__ptr64(__cdecl *)(class std::ios_base &__ptr64 ))__ptr64 
??6log@_log@uhd@@QEAAAEAV012@P6AAEAVios_base@std@@AEAV34@@Z@Z
; public: bool __cdecl uhd::<class std::<char,struct std::<char>,class std::<char>>,class std::<char,struct std::<char>,class std::<char>>>::operator ==(class uhd::<class std::<char,struct std::<char>,class std::<char>>,class std::<char,struct std::<char>,class std::<char>>> const &__ptr64 )const __ptr64 
??8?$dict@V?$basic_string@DU?$char_traits@D@std@@V?$allocator@D@2@@std@@V12@@uhd@@QEBA_NAEBV01@@Z
; public: bool __cdecl uhd::rfnoc::block_id_t::operator ==(class uhd::rfnoc::block_id_t const &__ptr64 )const __ptr64 
??8block_id_t@rfnoc@uhd@@QEBA_NAEBV012@@Z
; public: bool __cdecl uhd::rfnoc::block_id_t::operator ==(class std::<char,struct std::<char>,class std::<char>> const &__ptr64 )const __ptr64 
??8block_id_t@rfnoc@uhd@@QEBA_NAEBV?$basic_string@DU?$char_traits@D@std@@V?$allocator@D@2@@std@@@Z
; public: bool __cdecl uhd::rfnoc::block_id_t::operator ==(char const *__ptr64)const __ptr64 
??8block_id_t@rfnoc@uhd@@QEBA_NPEBD@Z
; bool __cdecl uhd::convert::operator ==(struct uhd::convert::id_type const &__ptr64 ,struct uhd::convert::id_type const &__ptr64 )
??8convert@uhd@@YA_NAEBUid_type@01@0@Z
; public: bool __cdecl uhd::rfnoc::chdr::ctrl_payload::operator ==(class uhd::rfnoc::chdr::ctrl_payload const &__ptr64 )const __ptr64 
??8ctrl_payload@chdr@rfnoc@uhd@@QEBA_NAEBV0123@@Z
; public: bool __cdecl uhd::rfnoc::graph_edge_t::operator ==(struct uhd::rfnoc::graph_edge_t const &__ptr64 )const __ptr64 
??8graph_edge_t@rfnoc@uhd@@QEBA_NAEBU012@@Z
; public: bool __cdecl uhd::rfnoc::chdr::mgmt_hop_t::operator ==(class uhd::rfnoc::chdr::mgmt_hop_t const &__ptr64 )const __ptr64 
??8mgmt_hop_t@chdr@rfnoc@uhd@@QEBA_NAEBV0123@@Z
; public: bool __cdecl uhd::rfnoc::chdr::mgmt_op_t::operator ==(class uhd::rfnoc::chdr::mgmt_op_t const &__ptr64 )const __ptr64 
??8mgmt_op_t@chdr@rfnoc@uhd@@QEBA_NAEBV0123@@Z
; public: bool __cdecl uhd::rfnoc::chdr::mgmt_payload::operator ==(class uhd::rfnoc::chdr::mgmt_payload const &__ptr64 )const __ptr64 
??8mgmt_payload@chdr@rfnoc@uhd@@QEBA_NAEBV0123@@Z
; public: bool __cdecl uhd::range_t::operator ==(class uhd::range_t const &__ptr64 )const __ptr64 
??8range_t@uhd@@QEBA_NAEBV01@@Z
; public: bool __cdecl uhd::rfnoc::chdr::strc_payload::operator ==(class uhd::rfnoc::chdr::strc_payload const &__ptr64 )const __ptr64 
??8strc_payload@chdr@rfnoc@uhd@@QEBA_NAEBV0123@@Z
; public: bool __cdecl uhd::rfnoc::chdr::strs_payload::operator ==(class uhd::rfnoc::chdr::strs_payload const &__ptr64 )const __ptr64 
??8strs_payload@chdr@rfnoc@uhd@@QEBA_NAEBV0123@@Z
; public: bool __cdecl uhd::usrp::subdev_spec_pair_t::operator ==(struct uhd::usrp::subdev_spec_pair_t const &__ptr64 )__ptr64 
??8subdev_spec_pair_t@usrp@uhd@@QEAA_NAEBU012@@Z
; bool __cdecl uhd::operator ==(class uhd::time_spec_t const &__ptr64 ,class uhd::time_spec_t const &__ptr64 )
??8uhd@@YA_NAEBVtime_spec_t@0@0@Z
; bool __cdecl uhd::usrp::operator ==(struct uhd::usrp::subdev_spec_pair_t const &__ptr64 ,struct uhd::usrp::subdev_spec_pair_t const &__ptr64 )
??8usrp@uhd@@YA_NAEBUsubdev_spec_pair_t@01@0@Z
; bool __cdecl uhd::usrp::operator ==(class uhd::usrp::dboard_id_t const &__ptr64 ,class uhd::usrp::dboard_id_t const &__ptr64 )
??8usrp@uhd@@YA_NAEBVdboard_id_t@01@0@Z
; bool __cdecl uhd::usrp::operator ==(class uhd::usrp::fe_connection_t const &__ptr64 ,class uhd::usrp::fe_connection_t const &__ptr64 )
??8usrp@uhd@@YA_NAEBVfe_connection_t@01@0@Z
; public: bool __cdecl uhd::usrp::zbx::zbx_tune_map_item_t::operator ==(struct uhd::usrp::zbx::zbx_tune_map_item_t const &__ptr64 )const __ptr64 
??8zbx_tune_map_item_t@zbx@usrp@uhd@@QEBA_NAEBU0123@@Z
; public: bool __cdecl uhd::<class std::<char,struct std::<char>,class std::<char>>,class std::<char,struct std::<char>,class std::<char>>>::operator !=(class uhd::<class std::<char,struct std::<char>,class std::<char>>,class std::<char,struct std::<char>,class std::<char>>> const &__ptr64 )const __ptr64 
??9?$dict@V?$basic_string@DU?$char_traits@D@std@@V?$allocator@D@2@@std@@V12@@uhd@@QEBA_NAEBV01@@Z
; public: bool __cdecl uhd::rfnoc::block_id_t::operator !=(class uhd::rfnoc::block_id_t const &__ptr64 )const __ptr64 
??9block_id_t@rfnoc@uhd@@QEBA_NAEBV012@@Z
; public: bool __cdecl uhd::rfnoc::chdr::ctrl_payload::operator !=(class uhd::rfnoc::chdr::ctrl_payload const &__ptr64 )const __ptr64 
??9ctrl_payload@chdr@rfnoc@uhd@@QEBA_NAEBV0123@@Z
; public: bool __cdecl uhd::range_t::operator !=(class uhd::range_t const &__ptr64 )const __ptr64 
??9range_t@uhd@@QEBA_NAEBV01@@Z
; public: bool __cdecl uhd::rfnoc::chdr::strc_payload::operator !=(class uhd::rfnoc::chdr::strc_payload const &__ptr64 )const __ptr64 
??9strc_payload@chdr@rfnoc@uhd@@QEBA_NAEBV0123@@Z
; public: bool __cdecl uhd::rfnoc::chdr::strs_payload::operator !=(class uhd::rfnoc::chdr::strs_payload const &__ptr64 )const __ptr64 
??9strs_payload@chdr@rfnoc@uhd@@QEBA_NAEBV0123@@Z
; public: bool __cdecl uhd::usrp::subdev_spec_pair_t::operator !=(struct uhd::usrp::subdev_spec_pair_t const &__ptr64 )__ptr64 
??9subdev_spec_pair_t@usrp@uhd@@QEAA_NAEBU012@@Z
; public: class std::<char,struct std::<char>,class std::<char>> &__ptr64 __cdecl uhd::<class std::<char,struct std::<char>,class std::<char>>,class std::<char,struct std::<char>,class std::<char>>>::operator[](class std::<char,struct std::<char>,class std::<char>> const &__ptr64 )__ptr64 
??A?$dict@V?$basic_string@DU?$char_traits@D@std@@V?$allocator@D@2@@std@@V12@@uhd@@QEAAAEAV?$basic_string@DU?$char_traits@D@std@@V?$allocator@D@2@@std@@AEBV23@@Z
; public: class std::<char,struct std::<char>,class std::<char>> const &__ptr64 __cdecl uhd::<class std::<char,struct std::<char>,class std::<char>>,class std::<char,struct std::<char>,class std::<char>>>::operator[](class std::<char,struct std::<char>,class std::<char>> const &__ptr64 )const __ptr64 
??A?$dict@V?$basic_string@DU?$char_traits@D@std@@V?$allocator@D@2@@std@@V12@@uhd@@QEBAAEBV?$basic_string@DU?$char_traits@D@std@@V?$allocator@D@2@@std@@AEBV23@@Z
; public: void *__ptr64 const &__ptr64 __cdecl uhd::<void *__ptr64>::operator[](unsigned __int64)const __ptr64 
??A?$ref_vector@PEAX@uhd@@QEBAAEBQEAX_K@Z
; public: void const *__ptr64 const &__ptr64 __cdecl uhd::<void const *__ptr64>::operator[](unsigned __int64)const __ptr64 
??A?$ref_vector@PEBX@uhd@@QEBAAEBQEBX_K@Z
; public: struct uhd::usrp::subdev_spec_pair_t &__ptr64 __cdecl std::<struct uhd::usrp::subdev_spec_pair_t,class std::<struct uhd::usrp::subdev_spec_pair_t>>::operator[](unsigned __int64)__ptr64 
??A?$vector@Usubdev_spec_pair_t@usrp@uhd@@V?$allocator@Usubdev_spec_pair_t@usrp@uhd@@@std@@@std@@QEAAAEAUsubdev_spec_pair_t@usrp@uhd@@_K@Z
; public: struct uhd::usrp::subdev_spec_pair_t const &__ptr64 __cdecl std::<struct uhd::usrp::subdev_spec_pair_t,class std::<struct uhd::usrp::subdev_spec_pair_t>>::operator[](unsigned __int64)const __ptr64 
??A?$vector@Usubdev_spec_pair_t@usrp@uhd@@V?$allocator@Usubdev_spec_pair_t@usrp@uhd@@@std@@@std@@QEBAAEBUsubdev_spec_pair_t@usrp@uhd@@_K@Z
; public: class uhd::range_t &__ptr64 __cdecl std::<class uhd::range_t,class std::<class uhd::range_t>>::operator[](unsigned __int64)__ptr64 
??A?$vector@Vrange_t@uhd@@V?$allocator@Vrange_t@uhd@@@std@@@std@@QEAAAEAVrange_t@uhd@@_K@Z
; public: class uhd::range_t const &__ptr64 __cdecl std::<class uhd::range_t,class std::<class uhd::range_t>>::operator[](unsigned __int64)const __ptr64 
??A?$vector@Vrange_t@uhd@@V?$allocator@Vrange_t@uhd@@@std@@@std@@QEBAAEBVrange_t@uhd@@_K@Z
; public: void __cdecl uhd::<class std::<char,struct std::<char>,class std::<char>>,class std::<char,struct std::<char>,class std::<char>>>::operator class std::<class std::<char,struct std::<char>,class std::<char>>,class std::<char,struct std::<char>,class std::<char>>,struct std::<class std::<char,struct std::<char>,class std::<char>>>,class std::<struct std::<class std::<char,struct std::<char>,class std::<char>> const,class std::<char,struct std::<char>,class std::<char>>>>>(...)const __ptr64 throw()
??B?$dict@V?$basic_string@DU?$char_traits@D@std@@V?$allocator@D@2@@std@@V12@@uhd@@QEBA?AV?$map@V?$basic_string@DU?$char_traits@D@std@@V?$allocator@D@2@@std@@V12@U?$less@V?$basic_string@DU?$char_traits@D@std@@V?$allocator@D@2@@std@@@2@V?$allocator@U?$pair@$$CBV?$basic_string@DU?$char_traits@D@std@@V?$allocator@D@2@@std@@V12@@std@@@2@@std@@XZ
; public: void __cdecl uhd::rfnoc::block_id_t::operator class std::<char,struct std::<char>,class std::<char>>(...)const __ptr64 throw()
??Bblock_id_t@rfnoc@uhd@@QEBA?AV?$basic_string@DU?$char_traits@D@std@@V?$allocator@D@2@@std@@XZ
; public: class uhd::rfnoc::block_id_t __cdecl uhd::rfnoc::block_id_t::operator ++(int)__ptr64 
??Eblock_id_t@rfnoc@uhd@@QEAA?AV012@H@Z
; public: class uhd::rfnoc::block_id_t __cdecl uhd::rfnoc::block_id_t::operator ++(void)__ptr64 
??Eblock_id_t@rfnoc@uhd@@QEAA?AV012@XZ
; struct uhd::fs_path __cdecl uhd::operator /(struct uhd::fs_path const &__ptr64 ,struct uhd::fs_path const &__ptr64 )
??Kuhd@@YA?AUfs_path@0@AEBU10@0@Z
; struct uhd::fs_path __cdecl uhd::operator /(struct uhd::fs_path const &__ptr64 ,unsigned __int64)
??Kuhd@@YA?AUfs_path@0@AEBU10@_K@Z
; public: bool __cdecl uhd::rfnoc::block_id_t::operator <(class uhd::rfnoc::block_id_t const &__ptr64 )const __ptr64 
??Mblock_id_t@rfnoc@uhd@@QEBA_NAEBV012@@Z
; bool __cdecl uhd::operator <(class uhd::time_spec_t const &__ptr64 ,class uhd::time_spec_t const &__ptr64 )
??Muhd@@YA_NAEBVtime_spec_t@0@0@Z
; public: bool __cdecl uhd::rfnoc::block_id_t::operator >(class uhd::rfnoc::block_id_t const &__ptr64 )const __ptr64 
??Oblock_id_t@rfnoc@uhd@@QEBA_NAEBV012@@Z
; public: class uhd::time_spec_t &__ptr64 __cdecl uhd::time_spec_t::operator +=(double &__ptr64 )__ptr64 
??Ytime_spec_t@uhd@@QEAAAEAV01@AEAN@Z
; public: class uhd::time_spec_t &__ptr64 __cdecl uhd::time_spec_t::operator +=(class uhd::time_spec_t const &__ptr64 )__ptr64 
??Ytime_spec_t@uhd@@QEAAAEAV01@AEBV01@@Z
; public: class uhd::time_spec_t &__ptr64 __cdecl uhd::time_spec_t::operator -=(double &__ptr64 )__ptr64 
??Ztime_spec_t@uhd@@QEAAAEAV01@AEAN@Z
; public: class uhd::time_spec_t &__ptr64 __cdecl uhd::time_spec_t::operator -=(class uhd::time_spec_t const &__ptr64 )__ptr64 
??Ztime_spec_t@uhd@@QEAAAEAV01@AEBV01@@Z
; const uhd::<unsigned int,0x1ULL,0x0ULL>::$vftable
??_7?$soft_register_t@I$00$0A@@uhd@@6B@ DATA
; const uhd::<unsigned int,0x0ULL,0x1ULL>::$vftable
??_7?$soft_register_t@I$0A@$00@uhd@@6B@ DATA
; const uhd::<unsigned __int64,0x1ULL,0x0ULL>::$vftable
??_7?$soft_register_t@_K$00$0A@@uhd@@6B@ DATA
; const uhd::access_error::$vftable
??_7access_error@uhd@@6B@ DATA
; const uhd::rfnoc::action_info::$vftable
??_7action_info@rfnoc@uhd@@6B@ DATA
; const uhd::features::adc_self_calibration_iface::$vftable
??_7adc_self_calibration_iface@features@uhd@@6B@ DATA
; const uhd::rfnoc::addsub_block_control::$vftable {for 'uhd::rfnoc::node_t' }
??_7addsub_block_control@rfnoc@uhd@@6Bnode_t@12@@ DATA
; const uhd::rfnoc::addsub_block_control::$vftable {for 'uhd::rfnoc::register_iface_holder' }
??_7addsub_block_control@rfnoc@uhd@@6Bregister_iface_holder@12@@ DATA
; const uhd::analog_filter_base::$vftable
??_7analog_filter_base@uhd@@6B@ DATA
; const uhd::analog_filter_lp::$vftable
??_7analog_filter_lp@uhd@@6B@ DATA
; const uhd::rfnoc::rf_control::antenna_iface::$vftable
??_7antenna_iface@rf_control@rfnoc@uhd@@6B@ DATA
; const uhd::rfnoc::rf_control::antenna_radio_control_mixin::$vftable
??_7antenna_radio_control_mixin@rf_control@rfnoc@uhd@@6B@ DATA
; const uhd::assertion_error::$vftable
??_7assertion_error@uhd@@6B@ DATA
; const b200_iface::$vftable {for 'b200_iface' }
??_7b200_iface@@6B0@@ DATA
; const b200_iface::$vftable {for 'uhd::i2c_iface' }
??_7b200_iface@@6Bi2c_iface@uhd@@@ DATA
; const uhd::rfnoc::block_control::$vftable {for 'uhd::rfnoc::node_t' }
??_7block_control@rfnoc@uhd@@6Bnode_t@12@@ DATA
; const uhd::rfnoc::block_control::$vftable {for 'uhd::rfnoc::register_iface_holder' }
??_7block_control@rfnoc@uhd@@6Bregister_iface_holder@12@@ DATA
; const uhd::transport::buffer_pool::$vftable
??_7buffer_pool@transport@uhd@@6B@ DATA
; const uhd::usrp::cal::container::$vftable
??_7container@cal@usrp@uhd@@6B@ DATA
; const uhd::usrp::dboard_base::$vftable
??_7dboard_base@usrp@uhd@@6B@ DATA
; const uhd::usrp::dboard_iface::$vftable
??_7dboard_iface@usrp@uhd@@6B@ DATA
; const uhd::usrp::dboard_manager::$vftable
??_7dboard_manager@usrp@uhd@@6B@ DATA
; const uhd::rfnoc::ddc_block_control::$vftable {for 'uhd::rfnoc::node_t' }
??_7ddc_block_control@rfnoc@uhd@@6Bnode_t@12@@ DATA
; const uhd::rfnoc::ddc_block_control::$vftable {for 'uhd::rfnoc::register_iface_holder' }
??_7ddc_block_control@rfnoc@uhd@@6Bregister_iface_holder@12@@ DATA
; const uhd::device::$vftable
??_7device@uhd@@6B@ DATA
; const uhd::features::discoverable_feature::$vftable
??_7discoverable_feature@features@uhd@@6B@ DATA
; const uhd::features::discoverable_feature_getter_iface::$vftable
??_7discoverable_feature_getter_iface@features@uhd@@6B@ DATA
; const uhd::rfnoc::dmafifo_block_control::$vftable {for 'uhd::rfnoc::node_t' }
??_7dmafifo_block_control@rfnoc@uhd@@6Bnode_t@12@@ DATA
; const uhd::rfnoc::dmafifo_block_control::$vftable {for 'uhd::rfnoc::register_iface_holder' }
??_7dmafifo_block_control@rfnoc@uhd@@6Bregister_iface_holder@12@@ DATA
; const uhd::rfnoc::duc_block_control::$vftable {for 'uhd::rfnoc::node_t' }
??_7duc_block_control@rfnoc@uhd@@6Bnode_t@12@@ DATA
; const uhd::rfnoc::duc_block_control::$vftable {for 'uhd::rfnoc::register_iface_holder' }
??_7duc_block_control@rfnoc@uhd@@6Bregister_iface_holder@12@@ DATA
; const uhd::rfnoc::rf_control::enumerated_antenna::$vftable
??_7enumerated_antenna@rf_control@rfnoc@uhd@@6B@ DATA
; const uhd::environment_error::$vftable
??_7environment_error@uhd@@6B@ DATA
; const uhd::exception::$vftable
??_7exception@uhd@@6B@ DATA
; const uhd::experts::expert_container::$vftable
??_7expert_container@experts@uhd@@6B@ DATA
; const uhd::extension::extension::$vftable {for 'uhd::rfnoc::rf_control::core_iface' }
??_7extension@0uhd@@6Bcore_iface@rf_control@rfnoc@1@@ DATA
; const uhd::extension::extension::$vftable {for 'uhd::rfnoc::rf_control::power_reference_iface' }
??_7extension@0uhd@@6Bpower_reference_iface@rf_control@rfnoc@1@@ DATA
; const uhd::rfnoc::fft_block_control::$vftable {for 'uhd::rfnoc::node_t' }
??_7fft_block_control@rfnoc@uhd@@6Bnode_t@12@@ DATA
; const uhd::rfnoc::fft_block_control::$vftable {for 'uhd::rfnoc::register_iface_holder' }
??_7fft_block_control@rfnoc@uhd@@6Bregister_iface_holder@12@@ DATA
; const uhd::filter_info_base::$vftable
??_7filter_info_base@uhd@@6B@ DATA
; const uhd::rfnoc::fir_filter_block_control::$vftable {for 'uhd::rfnoc::node_t' }
??_7fir_filter_block_control@rfnoc@uhd@@6Bnode_t@12@@ DATA
; const uhd::rfnoc::fir_filter_block_control::$vftable {for 'uhd::rfnoc::register_iface_holder' }
??_7fir_filter_block_control@rfnoc@uhd@@6Bregister_iface_holder@12@@ DATA
; const uhd::rfnoc::fosphor_block_control::$vftable {for 'uhd::rfnoc::node_t' }
??_7fosphor_block_control@rfnoc@uhd@@6Bnode_t@12@@ DATA
; const uhd::rfnoc::fosphor_block_control::$vftable {for 'uhd::rfnoc::register_iface_holder' }
??_7fosphor_block_control@rfnoc@uhd@@6Bregister_iface_holder@12@@ DATA
; const uhd::gain_group::$vftable
??_7gain_group@uhd@@6B@ DATA
; const uhd::features::gpio_power_iface::$vftable
??_7gpio_power_iface@features@uhd@@6B@ DATA
; const uhd::gps_ctrl::$vftable
??_7gps_ctrl@uhd@@6B@ DATA
; const uhd::i2c_iface::$vftable
??_7i2c_iface@uhd@@6B@ DATA
; const uhd::index_error::$vftable
??_7index_error@uhd@@6B@ DATA
; const uhd::features::internal_sync_iface::$vftable
??_7internal_sync_iface@features@uhd@@6B@ DATA
; const uhd::io_error::$vftable
??_7io_error@uhd@@6B@ DATA
; const uhd::usrp::cal::iq_cal::$vftable
??_7iq_cal@cal@usrp@uhd@@6B@ DATA
; const uhd::rfnoc::keep_one_in_n_block_control::$vftable {for 'uhd::rfnoc::node_t' }
??_7keep_one_in_n_block_control@rfnoc@uhd@@6Bnode_t@12@@ DATA
; const uhd::rfnoc::keep_one_in_n_block_control::$vftable {for 'uhd::rfnoc::register_iface_holder' }
??_7keep_one_in_n_block_control@rfnoc@uhd@@6Bregister_iface_holder@12@@ DATA
; const uhd::key_error::$vftable
??_7key_error@uhd@@6B@ DATA
; const uhd::rfnoc::lc_block_control::$vftable {for 'uhd::rfnoc::node_t' }
??_7lc_block_control@rfnoc@uhd@@6Bnode_t@12@@ DATA
; const uhd::rfnoc::lc_block_control::$vftable {for 'uhd::rfnoc::register_iface_holder' }
??_7lc_block_control@rfnoc@uhd@@6Bregister_iface_holder@12@@ DATA
; const uhd::rfnoc::logpwr_block_control::$vftable {for 'uhd::rfnoc::node_t' }
??_7logpwr_block_control@rfnoc@uhd@@6Bnode_t@12@@ DATA
; const uhd::rfnoc::logpwr_block_control::$vftable {for 'uhd::rfnoc::register_iface_holder' }
??_7logpwr_block_control@rfnoc@uhd@@6Bregister_iface_holder@12@@ DATA
; const uhd::lookup_error::$vftable
??_7lookup_error@uhd@@6B@ DATA
; const uhd::transport::managed_buffer::$vftable
??_7managed_buffer@transport@uhd@@6B@ DATA
; const uhd::transport::managed_recv_buffer::$vftable
??_7managed_recv_buffer@transport@uhd@@6B@ DATA
; const uhd::transport::managed_send_buffer::$vftable
??_7managed_send_buffer@transport@uhd@@6B@ DATA
; const uhd::rfnoc::mb_controller::$vftable {for 'uhd::rfnoc::mb_controller' }
??_7mb_controller@rfnoc@uhd@@6B012@@ DATA
; const uhd::rfnoc::mb_controller::$vftable {for 'uhd::features::discoverable_feature_getter_iface' }
??_7mb_controller@rfnoc@uhd@@6Bdiscoverable_feature_getter_iface@features@2@@ DATA
; const uhd::rfnoc::mock_reg_iface_t::$vftable
??_7mock_reg_iface_t@rfnoc@uhd@@6B@ DATA
; const uhd::rfnoc::moving_average_block_control::$vftable {for 'uhd::rfnoc::node_t' }
??_7moving_average_block_control@rfnoc@uhd@@6Bnode_t@12@@ DATA
; const uhd::rfnoc::moving_average_block_control::$vftable {for 'uhd::rfnoc::register_iface_holder' }
??_7moving_average_block_control@rfnoc@uhd@@6Bregister_iface_holder@12@@ DATA
; const uhd::msg_task::$vftable
??_7msg_task@uhd@@6B@ DATA
; const uhd::usrp::multi_usrp::$vftable
??_7multi_usrp@usrp@uhd@@6B@ DATA
; const uhd::usrp_clock::multi_usrp_clock::$vftable
??_7multi_usrp_clock@usrp_clock@uhd@@6B@ DATA
; const uhd::rfnoc::rf_control::nameless_gain_mixin::$vftable
??_7nameless_gain_mixin@rf_control@rfnoc@uhd@@6B@ DATA
; const uhd::narrowing_error::$vftable
??_7narrowing_error@uhd@@6B@ DATA
; const uhd::niusrprio::nifpga_lvbitx::$vftable
??_7nifpga_lvbitx@niusrprio@uhd@@6B@ DATA
; const uhd::niusrprio::niriok_proxy::$vftable
??_7niriok_proxy@niusrprio@uhd@@6B@ DATA
; const uhd::niusrprio::niriok_proxy_impl_v1::$vftable
??_7niriok_proxy_impl_v1@niusrprio@uhd@@6B@ DATA
; const uhd::niusrprio::niriok_proxy_impl_v2::$vftable
??_7niriok_proxy_impl_v2@niusrprio@uhd@@6B@ DATA
; const uhd::niusrprio::niusrprio_session::$vftable
??_7niusrprio_session@niusrprio@uhd@@6B@ DATA
; const uhd::rfnoc::noc_block_base::$vftable {for 'uhd::rfnoc::node_t' }
??_7noc_block_base@rfnoc@uhd@@6Bnode_t@12@@ DATA
; const uhd::rfnoc::noc_block_base::$vftable {for 'uhd::rfnoc::register_iface_holder' }
??_7noc_block_base@rfnoc@uhd@@6Bregister_iface_holder@12@@ DATA
; const uhd::rfnoc::node_t::$vftable
??_7node_t@rfnoc@uhd@@6B@ DATA
; const uhd::not_implemented_error::$vftable
??_7not_implemented_error@uhd@@6B@ DATA
; const uhd::rfnoc::null_block_control::$vftable {for 'uhd::rfnoc::node_t' }
??_7null_block_control@rfnoc@uhd@@6Bnode_t@12@@ DATA
; const uhd::rfnoc::null_block_control::$vftable {for 'uhd::rfnoc::register_iface_holder' }
??_7null_block_control@rfnoc@uhd@@6Bregister_iface_holder@12@@ DATA
; const uhd::op_failed::$vftable
??_7op_failed@uhd@@6B@ DATA
; const uhd::op_seqerr::$vftable
??_7op_seqerr@uhd@@6B@ DATA
; const uhd::op_timeout::$vftable
??_7op_timeout@uhd@@6B@ DATA
; const uhd::op_timerr::$vftable
??_7op_timerr@uhd@@6B@ DATA
; const uhd::os_error::$vftable
??_7os_error@uhd@@6B@ DATA
; const uhd::rfnoc::property_base_t::$vftable
??_7property_base_t@rfnoc@uhd@@6B@ DATA
; const uhd::property_iface::$vftable
??_7property_iface@uhd@@6B@ DATA
; const uhd::property_tree::$vftable
??_7property_tree@uhd@@6B@ DATA
; const uhd::usrp::cal::pwr_cal::$vftable
??_7pwr_cal@cal@usrp@uhd@@6B@ DATA
; const uhd::features::ref_clk_calibration_iface::$vftable
??_7ref_clk_calibration_iface@features@uhd@@6B@ DATA
; const uhd::rfnoc::reg_iface_adapter::$vftable
??_7reg_iface_adapter@rfnoc@uhd@@6B@ DATA
; const uhd::rfnoc::replay_block_control::$vftable {for 'uhd::rfnoc::node_t' }
??_7replay_block_control@rfnoc@uhd@@6Bnode_t@12@@ DATA
; const uhd::rfnoc::replay_block_control::$vftable {for 'uhd::rfnoc::register_iface_holder' }
??_7replay_block_control@rfnoc@uhd@@6Bregister_iface_holder@12@@ DATA
; const uhd::resolve_error::$vftable
??_7resolve_error@uhd@@6B@ DATA
; const uhd::rfnoc_error::$vftable
??_7rfnoc_error@uhd@@6B@ DATA
; const uhd::rfnoc::rfnoc_graph::$vftable
??_7rfnoc_graph@rfnoc@uhd@@6B@ DATA
; const uhd::routing_error::$vftable
??_7routing_error@uhd@@6B@ DATA
; const uhd::runtime_error::$vftable
??_7runtime_error@uhd@@6B@ DATA
; const uhd::usrp::rx_dboard_base::$vftable
??_7rx_dboard_base@usrp@uhd@@6B@ DATA
; const uhd::rfnoc::rx_event_action_info::$vftable
??_7rx_event_action_info@rfnoc@uhd@@6B@ DATA
; const uhd::rx_streamer::$vftable
??_7rx_streamer@uhd@@6B@ DATA
; const uhd::rfnoc::siggen_block_control::$vftable {for 'uhd::rfnoc::node_t' }
??_7siggen_block_control@rfnoc@uhd@@6Bnode_t@12@@ DATA
; const uhd::rfnoc::siggen_block_control::$vftable {for 'uhd::rfnoc::register_iface_holder' }
??_7siggen_block_control@rfnoc@uhd@@6Bregister_iface_holder@12@@ DATA
; const uhd::soft_regmap_accessor_t::$vftable
??_7soft_regmap_accessor_t@uhd@@6B@ DATA
; const uhd::soft_regmap_db_t::$vftable
??_7soft_regmap_db_t@uhd@@6B@ DATA
; const uhd::soft_regmap_t::$vftable
??_7soft_regmap_t@uhd@@6B@ DATA
; const uhd::features::spi_getter_iface::$vftable
??_7spi_getter_iface@features@uhd@@6B@ DATA
; const uhd::spi_iface::$vftable
??_7spi_iface@uhd@@6B@ DATA
; const uhd::rfnoc::split_stream_block_control::$vftable {for 'uhd::rfnoc::node_t' }
??_7split_stream_block_control@rfnoc@uhd@@6Bnode_t@12@@ DATA
; const uhd::rfnoc::split_stream_block_control::$vftable {for 'uhd::rfnoc::register_iface_holder' }
??_7split_stream_block_control@rfnoc@uhd@@6Bregister_iface_holder@12@@ DATA
; const uhd::rfnoc::stream_cmd_action_info::$vftable
??_7stream_cmd_action_info@rfnoc@uhd@@6B@ DATA
; const uhd::rfnoc::switchboard_block_control::$vftable {for 'uhd::rfnoc::node_t' }
??_7switchboard_block_control@rfnoc@uhd@@6Bnode_t@12@@ DATA
; const uhd::rfnoc::switchboard_block_control::$vftable {for 'uhd::rfnoc::register_iface_holder' }
??_7switchboard_block_control@rfnoc@uhd@@6Bregister_iface_holder@12@@ DATA
; const uhd::syntax_error::$vftable
??_7syntax_error@uhd@@6B@ DATA
; const uhd::system_error::$vftable
??_7system_error@uhd@@6B@ DATA
; const uhd::timed_wb_iface::$vftable
??_7timed_wb_iface@uhd@@6B@ DATA
; const uhd::rfnoc::mb_controller::timekeeper::$vftable
??_7timekeeper@mb_controller@rfnoc@uhd@@6B@ DATA
; const uhd::features::trig_io_mode_iface::$vftable
??_7trig_io_mode_iface@features@uhd@@6B@ DATA
; const uhd::rfnoc::tune_request_action_info::$vftable
??_7tune_request_action_info@rfnoc@uhd@@6B@ DATA
; const uhd::usrp::tx_dboard_base::$vftable
??_7tx_dboard_base@usrp@uhd@@6B@ DATA
; const uhd::rfnoc::tx_event_action_info::$vftable
??_7tx_event_action_info@rfnoc@uhd@@6B@ DATA
; const uhd::tx_streamer::$vftable
??_7tx_streamer@uhd@@6B@ DATA
; const uhd::type_error::$vftable
??_7type_error@uhd@@6B@ DATA
; const uhd::uart_iface::$vftable
??_7uart_iface@uhd@@6B@ DATA
; const uhd::transport::udp_simple::$vftable
??_7udp_simple@transport@uhd@@6B@ DATA
; const uhd::transport::udp_zero_copy::$vftable {for 'uhd::transport::udp_zero_copy' }
??_7udp_zero_copy@transport@uhd@@6B012@@ DATA
; const uhd::transport::udp_zero_copy::$vftable {for 'uhd::transport::zero_copy_if' }
??_7udp_zero_copy@transport@uhd@@6Bzero_copy_if@12@@ DATA
; const uhd::transport::usb_control::$vftable
??_7usb_control@transport@uhd@@6B@ DATA
; const uhd::transport::usb_device_handle::$vftable
??_7usb_device_handle@transport@uhd@@6B@ DATA
; const uhd::usb_error::$vftable
??_7usb_error@uhd@@6B@ DATA
; const uhd::transport::usb_zero_copy::$vftable
??_7usb_zero_copy@transport@uhd@@6B@ DATA
; const uhd::value_error::$vftable
??_7value_error@uhd@@6B@ DATA
; const uhd::rfnoc::vector_iir_block_control::$vftable {for 'uhd::rfnoc::node_t' }
??_7vector_iir_block_control@rfnoc@uhd@@6Bnode_t@12@@ DATA
; const uhd::rfnoc::vector_iir_block_control::$vftable {for 'uhd::rfnoc::register_iface_holder' }
??_7vector_iir_block_control@rfnoc@uhd@@6Bregister_iface_holder@12@@ DATA
; const uhd::wb_iface::$vftable
??_7wb_iface@uhd@@6B@ DATA
; const uhd::rfnoc::window_block_control::$vftable {for 'uhd::rfnoc::node_t' }
??_7window_block_control@rfnoc@uhd@@6Bnode_t@12@@ DATA
; const uhd::rfnoc::window_block_control::$vftable {for 'uhd::rfnoc::register_iface_holder' }
??_7window_block_control@rfnoc@uhd@@6Bregister_iface_holder@12@@ DATA
; const uhd::usrp::xcvr_dboard_base::$vftable
??_7xcvr_dboard_base@usrp@uhd@@6B@ DATA
; const uhd::usrp::cal::zbx_rx_dsa_cal::$vftable
??_7zbx_rx_dsa_cal@cal@usrp@uhd@@6B@ DATA
; const uhd::usrp::cal::zbx_tx_dsa_cal::$vftable
??_7zbx_tx_dsa_cal@cal@usrp@uhd@@6B@ DATA
; const uhd::transport::zero_copy_if::$vftable
??_7zero_copy_if@transport@uhd@@6B@ DATA
; const uhd::niusrprio::niriok_proxy_impl_v1::$vbtable
??_8niriok_proxy_impl_v1@niusrprio@uhd@@7B@ DATA
; const uhd::niusrprio::niriok_proxy_impl_v2::$vbtable
??_8niriok_proxy_impl_v2@niusrprio@uhd@@7B@ DATA
; public: void __cdecl uhd::niusrprio::niriok_proxy_impl_v1::vbase_destructor(void)__ptr64 
??_Dniriok_proxy_impl_v1@niusrprio@uhd@@QEAAXXZ
; public: void __cdecl uhd::niusrprio::niriok_proxy_impl_v2::vbase_destructor(void)__ptr64 
??_Dniriok_proxy_impl_v2@niusrprio@uhd@@QEAAXXZ
; public: void __cdecl boost::archive::<wchar_t>::__dflt_ctor_closure(void)__ptr64 
??_F?$codecvt_null@_W@archive@boost@@QEAAXXZ
; public: void __cdecl uhd::usrp::dboard_id_t::__dflt_ctor_closure(void)__ptr64 
??_Fdboard_id_t@usrp@uhd@@QEAAXXZ
; public: void __cdecl uhd::device_addr_t::__dflt_ctor_closure(void)__ptr64 
??_Fdevice_addr_t@uhd@@QEAAXXZ
; public: void __cdecl uhd::range_t::__dflt_ctor_closure(void)__ptr64 
??_Frange_t@uhd@@QEAAXXZ
; public: void __cdecl uhd::spi_config_t::__dflt_ctor_closure(void)__ptr64 
??_Fspi_config_t@uhd@@QEAAXXZ
; public: void __cdecl uhd::stream_args_t::__dflt_ctor_closure(void)__ptr64 
??_Fstream_args_t@uhd@@QEAAXXZ
; public: void __cdecl uhd::usrp::subdev_spec_pair_t::__dflt_ctor_closure(void)__ptr64 
??_Fsubdev_spec_pair_t@usrp@uhd@@QEAAXXZ
; public: void __cdecl uhd::usrp::subdev_spec_t::__dflt_ctor_closure(void)__ptr64 
??_Fsubdev_spec_t@usrp@uhd@@QEAAXXZ
; public: void __cdecl uhd::time_spec_t::__dflt_ctor_closure(void)__ptr64 
??_Ftime_spec_t@uhd@@QEAAXXZ
; public: void __cdecl uhd::tune_request_t::__dflt_ctor_closure(void)__ptr64 
??_Ftune_request_t@uhd@@QEAAXXZ
; private: static unsigned __int64 const uhd::rfnoc::chdr::ctrl_payload::ADDRESS_OFFSET
?ADDRESS_OFFSET@ctrl_payload@chdr@rfnoc@uhd@@0_KB DATA
; private: static unsigned __int64 const uhd::rfnoc::chdr::ctrl_payload::ADDRESS_WIDTH
?ADDRESS_WIDTH@ctrl_payload@chdr@rfnoc@uhd@@0_KB DATA
; public: static unsigned __int64 const uhd::usrp::multi_usrp::ALL_CHANS
?ALL_CHANS@multi_usrp@usrp@uhd@@2_KB DATA
; public: static class std::<char,struct std::<char>,class std::<char>> const uhd::usrp::multi_usrp::ALL_GAINS
?ALL_GAINS@multi_usrp@usrp@uhd@@2V?$basic_string@DU?$char_traits@D@std@@V?$allocator@D@2@@std@@B DATA
; public: static class std::<char,struct std::<char>,class std::<char>> const uhd::usrp::multi_usrp::ALL_LOS
?ALL_LOS@multi_usrp@usrp@uhd@@2V?$basic_string@DU?$char_traits@D@std@@V?$allocator@D@2@@std@@B DATA
; public: static unsigned __int64 const uhd::usrp::multi_usrp::ALL_MBOARDS
?ALL_MBOARDS@multi_usrp@usrp@uhd@@2_KB DATA
; protected: static class uhd::rfnoc::dirtifier_t uhd::rfnoc::node_t::ALWAYS_DIRTY
?ALWAYS_DIRTY@node_t@rfnoc@uhd@@1Vdirtifier_t@23@A DATA
; public: static unsigned __int64 const uhd::rfnoc::node_t::ANY_PORT
?ANY_PORT@node_t@rfnoc@uhd@@2_KB DATA
; public: static double const uhd::time_spec_t::ASAP
?ASAP@time_spec_t@uhd@@2NB DATA
; private: static unsigned __int64 const uhd::rfnoc::chdr::strs_payload::BUFF_INFO_OFFSET
?BUFF_INFO_OFFSET@strs_payload@chdr@rfnoc@uhd@@0_KB DATA
; private: static unsigned __int64 const uhd::rfnoc::chdr::strs_payload::BUFF_INFO_WIDTH
?BUFF_INFO_WIDTH@strs_payload@chdr@rfnoc@uhd@@0_KB DATA
; private: static unsigned __int64 const uhd::rfnoc::chdr::ctrl_payload::BYTE_ENABLE_OFFSET
?BYTE_ENABLE_OFFSET@ctrl_payload@chdr@rfnoc@uhd@@0_KB DATA
; private: static unsigned __int64 const uhd::rfnoc::chdr::ctrl_payload::BYTE_ENABLE_WIDTH
?BYTE_ENABLE_WIDTH@ctrl_payload@chdr@rfnoc@uhd@@0_KB DATA
; private: static unsigned __int64 const uhd::rfnoc::chdr::strs_payload::CAPACITY_BYTES_OFFSET
?CAPACITY_BYTES_OFFSET@strs_payload@chdr@rfnoc@uhd@@0_KB DATA
; private: static unsigned __int64 const uhd::rfnoc::chdr::strs_payload::CAPACITY_BYTES_WIDTH
?CAPACITY_BYTES_WIDTH@strs_payload@chdr@rfnoc@uhd@@0_KB DATA
; private: static unsigned __int64 const uhd::rfnoc::chdr::strs_payload::CAPACITY_PKTS_OFFSET
?CAPACITY_PKTS_OFFSET@strs_payload@chdr@rfnoc@uhd@@0_KB DATA
; private: static unsigned __int64 const uhd::rfnoc::chdr::strs_payload::CAPACITY_PKTS_WIDTH
?CAPACITY_PKTS_WIDTH@strs_payload@chdr@rfnoc@uhd@@0_KB DATA
; private: static unsigned __int64 const uhd::rfnoc::chdr::ctrl_payload::DST_PORT_OFFSET
?DST_PORT_OFFSET@ctrl_payload@chdr@rfnoc@uhd@@0_KB DATA
; private: static unsigned __int64 const uhd::rfnoc::chdr::ctrl_payload::DST_PORT_WIDTH
?DST_PORT_WIDTH@ctrl_payload@chdr@rfnoc@uhd@@0_KB DATA
; private: static unsigned __int64 const uhd::rfnoc::chdr::ctrl_payload::HAS_TIME_OFFSET
?HAS_TIME_OFFSET@ctrl_payload@chdr@rfnoc@uhd@@0_KB DATA
; private: static unsigned __int64 const uhd::rfnoc::chdr::ctrl_payload::HAS_TIME_WIDTH
?HAS_TIME_WIDTH@ctrl_payload@chdr@rfnoc@uhd@@0_KB DATA
; private: static unsigned __int64 const uhd::rfnoc::chdr::ctrl_payload::HI_DATA_OFFSET
?HI_DATA_OFFSET@ctrl_payload@chdr@rfnoc@uhd@@0_KB DATA
; private: static unsigned __int64 const uhd::rfnoc::chdr::ctrl_payload::IS_ACK_OFFSET
?IS_ACK_OFFSET@ctrl_payload@chdr@rfnoc@uhd@@0_KB DATA
; private: static unsigned __int64 const uhd::rfnoc::chdr::ctrl_payload::IS_ACK_WIDTH
?IS_ACK_WIDTH@ctrl_payload@chdr@rfnoc@uhd@@0_KB DATA
; private: static unsigned __int64 const uhd::rfnoc::chdr::ctrl_payload::LO_DATA_OFFSET
?LO_DATA_OFFSET@ctrl_payload@chdr@rfnoc@uhd@@0_KB DATA
; public: static unsigned short const uhd::rfnoc::ddc_block_control::MAJOR_COMPAT
?MAJOR_COMPAT@ddc_block_control@rfnoc@uhd@@2GB DATA
; public: static unsigned short const uhd::rfnoc::duc_block_control::MAJOR_COMPAT
?MAJOR_COMPAT@duc_block_control@rfnoc@uhd@@2GB DATA
; public: static unsigned short const uhd::rfnoc::fir_filter_block_control::MAJOR_COMPAT
?MAJOR_COMPAT@fir_filter_block_control@rfnoc@uhd@@2GB DATA
; public: static unsigned short const uhd::rfnoc::lc_block_control::MAJOR_COMPAT
?MAJOR_COMPAT@lc_block_control@rfnoc@uhd@@2GB DATA
; public: static unsigned short const uhd::rfnoc::replay_block_control::MAJOR_COMPAT
?MAJOR_COMPAT@replay_block_control@rfnoc@uhd@@2GB DATA
; public: static unsigned __int64 const uhd::rfnoc::chdr::strc_payload::MAX_PACKET_SIZE
?MAX_PACKET_SIZE@strc_payload@chdr@rfnoc@uhd@@2_KB DATA
; public: static unsigned short const uhd::rfnoc::ddc_block_control::MINOR_COMPAT
?MINOR_COMPAT@ddc_block_control@rfnoc@uhd@@2GB DATA
; public: static unsigned short const uhd::rfnoc::duc_block_control::MINOR_COMPAT
?MINOR_COMPAT@duc_block_control@rfnoc@uhd@@2GB DATA
; public: static unsigned short const uhd::rfnoc::fir_filter_block_control::MINOR_COMPAT
?MINOR_COMPAT@fir_filter_block_control@rfnoc@uhd@@2GB DATA
; public: static unsigned short const uhd::rfnoc::lc_block_control::MINOR_COMPAT
?MINOR_COMPAT@lc_block_control@rfnoc@uhd@@2GB DATA
; public: static unsigned short const uhd::rfnoc::replay_block_control::MINOR_COMPAT
?MINOR_COMPAT@replay_block_control@rfnoc@uhd@@2GB DATA
; public: static unsigned int const uhd::usrp::cal::zbx_tx_dsa_cal::NUM_AMP
?NUM_AMP@zbx_tx_dsa_cal@cal@usrp@uhd@@2IB DATA
; private: static unsigned __int64 const uhd::rfnoc::chdr::ctrl_payload::NUM_DATA_OFFSET
?NUM_DATA_OFFSET@ctrl_payload@chdr@rfnoc@uhd@@0_KB DATA
; private: static unsigned __int64 const uhd::rfnoc::chdr::ctrl_payload::NUM_DATA_WIDTH
?NUM_DATA_WIDTH@ctrl_payload@chdr@rfnoc@uhd@@0_KB DATA
; public: static unsigned int const uhd::usrp::cal::zbx_rx_dsa_cal::NUM_DSA
?NUM_DSA@zbx_rx_dsa_cal@cal@usrp@uhd@@2IB DATA
; public: static unsigned int const uhd::usrp::cal::zbx_tx_dsa_cal::NUM_DSA
?NUM_DSA@zbx_tx_dsa_cal@cal@usrp@uhd@@2IB DATA
; public: static unsigned int const uhd::usrp::cal::zbx_rx_dsa_cal::NUM_GAIN_STAGES
?NUM_GAIN_STAGES@zbx_rx_dsa_cal@cal@usrp@uhd@@2IB DATA
; public: static unsigned int const uhd::usrp::cal::zbx_tx_dsa_cal::NUM_GAIN_STAGES
?NUM_GAIN_STAGES@zbx_tx_dsa_cal@cal@usrp@uhd@@2IB DATA
; private: static unsigned __int64 const uhd::rfnoc::chdr::strc_payload::NUM_PKTS_OFFSET
?NUM_PKTS_OFFSET@strc_payload@chdr@rfnoc@uhd@@0_KB DATA
; private: static unsigned __int64 const uhd::rfnoc::chdr::strc_payload::NUM_PKTS_WIDTH
?NUM_PKTS_WIDTH@strc_payload@chdr@rfnoc@uhd@@0_KB DATA
; private: static unsigned __int64 const uhd::rfnoc::chdr::ctrl_payload::OPCODE_OFFSET
?OPCODE_OFFSET@ctrl_payload@chdr@rfnoc@uhd@@0_KB DATA
; private: static unsigned __int64 const uhd::rfnoc::chdr::ctrl_payload::OPCODE_WIDTH
?OPCODE_WIDTH@ctrl_payload@chdr@rfnoc@uhd@@0_KB DATA
; private: static unsigned __int64 const uhd::rfnoc::chdr::strc_payload::OP_CODE_OFFSET
?OP_CODE_OFFSET@strc_payload@chdr@rfnoc@uhd@@0_KB DATA
; private: static unsigned __int64 const uhd::rfnoc::chdr::strc_payload::OP_CODE_WIDTH
?OP_CODE_WIDTH@strc_payload@chdr@rfnoc@uhd@@0_KB DATA
; private: static unsigned __int64 const uhd::rfnoc::chdr::strc_payload::OP_DATA_OFFSET
?OP_DATA_OFFSET@strc_payload@chdr@rfnoc@uhd@@0_KB DATA
; private: static unsigned __int64 const uhd::rfnoc::chdr::strc_payload::OP_DATA_WIDTH
?OP_DATA_WIDTH@strc_payload@chdr@rfnoc@uhd@@0_KB DATA
; public: static unsigned int const uhd::rfnoc::replay_block_control::PLAY_CMD_CONTINUOUS
?PLAY_CMD_CONTINUOUS@replay_block_control@rfnoc@uhd@@2IB DATA
; public: static unsigned int const uhd::rfnoc::replay_block_control::PLAY_CMD_FINITE
?PLAY_CMD_FINITE@replay_block_control@rfnoc@uhd@@2IB DATA
; public: static unsigned int const uhd::rfnoc::replay_block_control::PLAY_CMD_STOP
?PLAY_CMD_STOP@replay_block_control@rfnoc@uhd@@2IB DATA
; public: static unsigned int const uhd::rfnoc::ddc_block_control::RB_CIC_MAX_DECIM
?RB_CIC_MAX_DECIM@ddc_block_control@rfnoc@uhd@@2IB DATA
; public: static unsigned int const uhd::rfnoc::duc_block_control::RB_CIC_MAX_INTERP
?RB_CIC_MAX_INTERP@duc_block_control@rfnoc@uhd@@2IB DATA
; public: static unsigned int const uhd::rfnoc::ddc_block_control::RB_COMPAT_NUM
?RB_COMPAT_NUM@ddc_block_control@rfnoc@uhd@@2IB DATA
; public: static unsigned int const uhd::rfnoc::duc_block_control::RB_COMPAT_NUM
?RB_COMPAT_NUM@duc_block_control@rfnoc@uhd@@2IB DATA
; public: static unsigned int const uhd::rfnoc::ddc_block_control::RB_NUM_HB
?RB_NUM_HB@ddc_block_control@rfnoc@uhd@@2IB DATA
; public: static unsigned int const uhd::rfnoc::duc_block_control::RB_NUM_HB
?RB_NUM_HB@duc_block_control@rfnoc@uhd@@2IB DATA
; public: static unsigned int const uhd::<unsigned int,0x1ULL,0x0ULL>::REGISTER
?REGISTER@?$soft_register_t@I$00$0A@@uhd@@2IB DATA
; public: static unsigned int const uhd::<unsigned int,0x0ULL,0x1ULL>::REGISTER
?REGISTER@?$soft_register_t@I$0A@$00@uhd@@2IB DATA
; public: static unsigned int const uhd::<unsigned __int64,0x1ULL,0x0ULL>::REGISTER
?REGISTER@?$soft_register_t@_K$00$0A@@uhd@@2IB DATA
; public: static unsigned int const uhd::rfnoc::fosphor_block_control::REG_ALPHA_ADDR
?REG_ALPHA_ADDR@fosphor_block_control@rfnoc@uhd@@2IB DATA
; public: static unsigned int const uhd::rfnoc::vector_iir_block_control::REG_ALPHA_OFFSET
?REG_ALPHA_OFFSET@vector_iir_block_control@rfnoc@uhd@@2IB DATA
; public: static unsigned int const uhd::rfnoc::vector_iir_block_control::REG_BETA_OFFSET
?REG_BETA_OFFSET@vector_iir_block_control@rfnoc@uhd@@2IB DATA
; public: static unsigned int const uhd::rfnoc::siggen_block_control::REG_BLOCK_SIZE
?REG_BLOCK_SIZE@siggen_block_control@rfnoc@uhd@@2IB DATA
; public: static unsigned int const uhd::rfnoc::switchboard_block_control::REG_BLOCK_SIZE
?REG_BLOCK_SIZE@switchboard_block_control@rfnoc@uhd@@2IB DATA
; public: static unsigned int const uhd::rfnoc::vector_iir_block_control::REG_BLOCK_SIZE
?REG_BLOCK_SIZE@vector_iir_block_control@rfnoc@uhd@@2IB DATA
; public: static unsigned int const uhd::rfnoc::fft_block_control::REG_BYPASS_ADDR
?REG_BYPASS_ADDR@fft_block_control@rfnoc@uhd@@2IB DATA
; public: static unsigned int const uhd::rfnoc::fft_block_control::REG_CAPABILITIES2_ADDR
?REG_CAPABILITIES2_ADDR@fft_block_control@rfnoc@uhd@@2IB DATA
; public: static unsigned int const uhd::rfnoc::fft_block_control::REG_CAPABILITIES_ADDR
?REG_CAPABILITIES_ADDR@fft_block_control@rfnoc@uhd@@2IB DATA
; public: static unsigned int const uhd::rfnoc::siggen_block_control::REG_CARTESIAN_OFFSET
?REG_CARTESIAN_OFFSET@siggen_block_control@rfnoc@uhd@@2IB DATA
; public: static unsigned int const uhd::rfnoc::fosphor_block_control::REG_CLEAR_ADDR
?REG_CLEAR_ADDR@fosphor_block_control@rfnoc@uhd@@2IB DATA
; public: static unsigned int const uhd::rfnoc::fft_block_control::REG_COMPAT_ADDR
?REG_COMPAT_ADDR@fft_block_control@rfnoc@uhd@@2IB DATA
; public: static unsigned int const uhd::rfnoc::replay_block_control::REG_COMPAT_ADDR
?REG_COMPAT_ADDR@replay_block_control@rfnoc@uhd@@2IB DATA
; public: static unsigned int const uhd::rfnoc::lc_block_control::REG_COMPAT_NUM
?REG_COMPAT_NUM@lc_block_control@rfnoc@uhd@@2IB DATA
; public: static unsigned int const uhd::rfnoc::fir_filter_block_control::REG_COMPAT_NUM_ADDR
?REG_COMPAT_NUM_ADDR@fir_filter_block_control@rfnoc@uhd@@2IB DATA
; public: static unsigned int const uhd::rfnoc::siggen_block_control::REG_CONSTANT_OFFSET
?REG_CONSTANT_OFFSET@siggen_block_control@rfnoc@uhd@@2IB DATA
; public: static unsigned int const uhd::rfnoc::fft_block_control::REG_CP_INS_LEN_ADDR
?REG_CP_INS_LEN_ADDR@fft_block_control@rfnoc@uhd@@2IB DATA
; public: static unsigned int const uhd::rfnoc::fft_block_control::REG_CP_INS_LIST_CLR_ADDR
?REG_CP_INS_LIST_CLR_ADDR@fft_block_control@rfnoc@uhd@@2IB DATA
; public: static unsigned int const uhd::rfnoc::fft_block_control::REG_CP_INS_LIST_LOAD_ADDR
?REG_CP_INS_LIST_LOAD_ADDR@fft_block_control@rfnoc@uhd@@2IB DATA
; public: static unsigned int const uhd::rfnoc::fft_block_control::REG_CP_INS_LIST_OCC_ADDR
?REG_CP_INS_LIST_OCC_ADDR@fft_block_control@rfnoc@uhd@@2IB DATA
; public: static unsigned int const uhd::rfnoc::fft_block_control::REG_CP_REM_LEN_ADDR
?REG_CP_REM_LEN_ADDR@fft_block_control@rfnoc@uhd@@2IB DATA
; public: static unsigned int const uhd::rfnoc::fft_block_control::REG_CP_REM_LIST_CLR_ADDR
?REG_CP_REM_LIST_CLR_ADDR@fft_block_control@rfnoc@uhd@@2IB DATA
; public: static unsigned int const uhd::rfnoc::fft_block_control::REG_CP_REM_LIST_LOAD_ADDR
?REG_CP_REM_LIST_LOAD_ADDR@fft_block_control@rfnoc@uhd@@2IB DATA
; public: static unsigned int const uhd::rfnoc::fft_block_control::REG_CP_REM_LIST_OCC_ADDR
?REG_CP_REM_LIST_OCC_ADDR@fft_block_control@rfnoc@uhd@@2IB DATA
; public: static unsigned int const uhd::rfnoc::null_block_control::REG_CTRL_STATUS
?REG_CTRL_STATUS@null_block_control@rfnoc@uhd@@2IB DATA
; public: static unsigned int const uhd::rfnoc::fosphor_block_control::REG_DECIM_ADDR
?REG_DECIM_ADDR@fosphor_block_control@rfnoc@uhd@@2IB DATA
; public: static unsigned int const uhd::rfnoc::vector_iir_block_control::REG_DELAY_OFFSET
?REG_DELAY_OFFSET@vector_iir_block_control@rfnoc@uhd@@2IB DATA
; public: static unsigned int const uhd::rfnoc::switchboard_block_control::REG_DEMUX_SELECT_ADDR
?REG_DEMUX_SELECT_ADDR@switchboard_block_control@rfnoc@uhd@@2IB DATA
; public: static unsigned int const uhd::rfnoc::fft_block_control::REG_DIRECTION_ADDR
?REG_DIRECTION_ADDR@fft_block_control@rfnoc@uhd@@2IB DATA
; public: static unsigned int const uhd::rfnoc::fft_block_control::REG_DIRECTION_ADDR_V1
?REG_DIRECTION_ADDR_V1@fft_block_control@rfnoc@uhd@@2IB DATA
; public: static unsigned int const uhd::rfnoc::moving_average_block_control::REG_DIVISOR_ADDR
?REG_DIVISOR_ADDR@moving_average_block_control@rfnoc@uhd@@2IB DATA
; public: static unsigned int const uhd::rfnoc::fosphor_block_control::REG_ENABLE_ADDR
?REG_ENABLE_ADDR@fosphor_block_control@rfnoc@uhd@@2IB DATA
; public: static unsigned int const uhd::rfnoc::siggen_block_control::REG_ENABLE_OFFSET
?REG_ENABLE_OFFSET@siggen_block_control@rfnoc@uhd@@2IB DATA
; public: static unsigned int const uhd::rfnoc::fosphor_block_control::REG_EPSILON_ADDR
?REG_EPSILON_ADDR@fosphor_block_control@rfnoc@uhd@@2IB DATA
; public: static unsigned int const uhd::rfnoc::lc_block_control::REG_FEATURE_ENABLE_RB
?REG_FEATURE_ENABLE_RB@lc_block_control@rfnoc@uhd@@2IB DATA
; public: static unsigned int const uhd::rfnoc::lc_block_control::REG_FEATURE_ID
?REG_FEATURE_ID@lc_block_control@rfnoc@uhd@@2IB DATA
; public: static unsigned int const uhd::rfnoc::lc_block_control::REG_FEATURE_LIST_RB
?REG_FEATURE_LIST_RB@lc_block_control@rfnoc@uhd@@2IB DATA
; public: static unsigned int const uhd::rfnoc::fir_filter_block_control::REG_FIR_BLOCK_SIZE
?REG_FIR_BLOCK_SIZE@fir_filter_block_control@rfnoc@uhd@@2IB DATA
; public: static unsigned int const uhd::rfnoc::fir_filter_block_control::REG_FIR_LOAD_COEFF_ADDR
?REG_FIR_LOAD_COEFF_ADDR@fir_filter_block_control@rfnoc@uhd@@2IB DATA
; public: static unsigned int const uhd::rfnoc::fir_filter_block_control::REG_FIR_LOAD_COEFF_LAST_ADDR
?REG_FIR_LOAD_COEFF_LAST_ADDR@fir_filter_block_control@rfnoc@uhd@@2IB DATA
; public: static unsigned int const uhd::rfnoc::fir_filter_block_control::REG_FIR_MAX_NUM_COEFFS_ADDR
?REG_FIR_MAX_NUM_COEFFS_ADDR@fir_filter_block_control@rfnoc@uhd@@2IB DATA
; public: static unsigned int const uhd::rfnoc::siggen_block_control::REG_GAIN_OFFSET
?REG_GAIN_OFFSET@siggen_block_control@rfnoc@uhd@@2IB DATA
; public: static unsigned int const uhd::rfnoc::fft_block_control::REG_LENGTH_LOG2_ADDR
?REG_LENGTH_LOG2_ADDR@fft_block_control@rfnoc@uhd@@2IB DATA
; public: static unsigned int const uhd::rfnoc::fft_block_control::REG_LENGTH_LOG2_ADDR_V1
?REG_LENGTH_LOG2_ADDR_V1@fft_block_control@rfnoc@uhd@@2IB DATA
; public: static unsigned int const uhd::rfnoc::null_block_control::REG_LOOP_LINE_CNT_HI
?REG_LOOP_LINE_CNT_HI@null_block_control@rfnoc@uhd@@2IB DATA
; public: static unsigned int const uhd::rfnoc::null_block_control::REG_LOOP_LINE_CNT_LO
?REG_LOOP_LINE_CNT_LO@null_block_control@rfnoc@uhd@@2IB DATA
; public: static unsigned int const uhd::rfnoc::null_block_control::REG_LOOP_PKT_CNT_HI
?REG_LOOP_PKT_CNT_HI@null_block_control@rfnoc@uhd@@2IB DATA
; public: static unsigned int const uhd::rfnoc::null_block_control::REG_LOOP_PKT_CNT_LO
?REG_LOOP_PKT_CNT_LO@null_block_control@rfnoc@uhd@@2IB DATA
; public: static unsigned int const uhd::rfnoc::fft_block_control::REG_MAGNITUDE_ADDR
?REG_MAGNITUDE_ADDR@fft_block_control@rfnoc@uhd@@2IB DATA
; public: static unsigned int const uhd::rfnoc::fft_block_control::REG_MAGNITUDE_ADDR_V1
?REG_MAGNITUDE_ADDR_V1@fft_block_control@rfnoc@uhd@@2IB DATA
; public: static unsigned int const uhd::rfnoc::replay_block_control::REG_MEM_SIZE_ADDR
?REG_MEM_SIZE_ADDR@replay_block_control@rfnoc@uhd@@2IB DATA
; public: static unsigned int const uhd::rfnoc::keep_one_in_n_block_control::REG_MODE_OFFSET
?REG_MODE_OFFSET@keep_one_in_n_block_control@rfnoc@uhd@@2IB DATA
; public: static unsigned int const uhd::rfnoc::switchboard_block_control::REG_MUX_SELECT_ADDR
?REG_MUX_SELECT_ADDR@switchboard_block_control@rfnoc@uhd@@2IB DATA
; public: static unsigned int const uhd::rfnoc::keep_one_in_n_block_control::REG_N_OFFSET
?REG_N_OFFSET@keep_one_in_n_block_control@rfnoc@uhd@@2IB DATA
; public: static unsigned int const uhd::rfnoc::fosphor_block_control::REG_OFFSET_ADDR
?REG_OFFSET_ADDR@fosphor_block_control@rfnoc@uhd@@2IB DATA
; public: static unsigned int const uhd::rfnoc::fft_block_control::REG_ORDER_ADDR
?REG_ORDER_ADDR@fft_block_control@rfnoc@uhd@@2IB DATA
; public: static unsigned int const uhd::rfnoc::fft_block_control::REG_ORDER_ADDR_V1
?REG_ORDER_ADDR_V1@fft_block_control@rfnoc@uhd@@2IB DATA
; public: static unsigned int const uhd::rfnoc::fft_block_control::REG_OVERFLOW_ADDR
?REG_OVERFLOW_ADDR@fft_block_control@rfnoc@uhd@@2IB DATA
; public: static unsigned int const uhd::rfnoc::siggen_block_control::REG_PHASE_INC_OFFSET
?REG_PHASE_INC_OFFSET@siggen_block_control@rfnoc@uhd@@2IB DATA
; public: static unsigned int const uhd::rfnoc::replay_block_control::REG_PLAY_BASE_ADDR_HI_ADDR
?REG_PLAY_BASE_ADDR_HI_ADDR@replay_block_control@rfnoc@uhd@@2IB DATA
; public: static unsigned int const uhd::rfnoc::replay_block_control::REG_PLAY_BASE_ADDR_LO_ADDR
?REG_PLAY_BASE_ADDR_LO_ADDR@replay_block_control@rfnoc@uhd@@2IB DATA
; public: static unsigned int const uhd::rfnoc::replay_block_control::REG_PLAY_BUFFER_SIZE_HI_ADDR
?REG_PLAY_BUFFER_SIZE_HI_ADDR@replay_block_control@rfnoc@uhd@@2IB DATA
; public: static unsigned int const uhd::rfnoc::replay_block_control::REG_PLAY_BUFFER_SIZE_LO_ADDR
?REG_PLAY_BUFFER_SIZE_LO_ADDR@replay_block_control@rfnoc@uhd@@2IB DATA
; public: static unsigned int const uhd::rfnoc::replay_block_control::REG_PLAY_CMD_ADDR
?REG_PLAY_CMD_ADDR@replay_block_control@rfnoc@uhd@@2IB DATA
; public: static unsigned int const uhd::rfnoc::replay_block_control::REG_PLAY_CMD_FIFO_SPACE_ADDR
?REG_PLAY_CMD_FIFO_SPACE_ADDR@replay_block_control@rfnoc@uhd@@2IB DATA
; public: static unsigned int const uhd::rfnoc::replay_block_control::REG_PLAY_CMD_NUM_WORDS_HI_ADDR
?REG_PLAY_CMD_NUM_WORDS_HI_ADDR@replay_block_control@rfnoc@uhd@@2IB DATA
; public: static unsigned int const uhd::rfnoc::replay_block_control::REG_PLAY_CMD_NUM_WORDS_LO_ADDR
?REG_PLAY_CMD_NUM_WORDS_LO_ADDR@replay_block_control@rfnoc@uhd@@2IB DATA
; public: static unsigned int const uhd::rfnoc::replay_block_control::REG_PLAY_CMD_TIME_HI_ADDR
?REG_PLAY_CMD_TIME_HI_ADDR@replay_block_control@rfnoc@uhd@@2IB DATA
; public: static unsigned int const uhd::rfnoc::replay_block_control::REG_PLAY_CMD_TIME_LO_ADDR
?REG_PLAY_CMD_TIME_LO_ADDR@replay_block_control@rfnoc@uhd@@2IB DATA
; public: static unsigned int const uhd::rfnoc::replay_block_control::REG_PLAY_ITEM_SIZE_ADDR
?REG_PLAY_ITEM_SIZE_ADDR@replay_block_control@rfnoc@uhd@@2IB DATA
; public: static unsigned int const uhd::rfnoc::replay_block_control::REG_PLAY_POS_HI_ADDR
?REG_PLAY_POS_HI_ADDR@replay_block_control@rfnoc@uhd@@2IB DATA
; public: static unsigned int const uhd::rfnoc::replay_block_control::REG_PLAY_POS_LO_ADDR
?REG_PLAY_POS_LO_ADDR@replay_block_control@rfnoc@uhd@@2IB DATA
; public: static unsigned int const uhd::rfnoc::replay_block_control::REG_PLAY_WORDS_PER_PKT_ADDR
?REG_PLAY_WORDS_PER_PKT_ADDR@replay_block_control@rfnoc@uhd@@2IB DATA
; public: static unsigned int const uhd::rfnoc::fft_block_control::REG_PORT_CONFIG_ADDR
?REG_PORT_CONFIG_ADDR@fft_block_control@rfnoc@uhd@@2IB DATA
; public: static unsigned int const uhd::rfnoc::fosphor_block_control::REG_RANDOM_ADDR
?REG_RANDOM_ADDR@fosphor_block_control@rfnoc@uhd@@2IB DATA
; public: static unsigned int const uhd::rfnoc::replay_block_control::REG_REC_BASE_ADDR_HI_ADDR
?REG_REC_BASE_ADDR_HI_ADDR@replay_block_control@rfnoc@uhd@@2IB DATA
; public: static unsigned int const uhd::rfnoc::replay_block_control::REG_REC_BASE_ADDR_LO_ADDR
?REG_REC_BASE_ADDR_LO_ADDR@replay_block_control@rfnoc@uhd@@2IB DATA
; public: static unsigned int const uhd::rfnoc::replay_block_control::REG_REC_BUFFER_SIZE_HI_ADDR
?REG_REC_BUFFER_SIZE_HI_ADDR@replay_block_control@rfnoc@uhd@@2IB DATA
; public: static unsigned int const uhd::rfnoc::replay_block_control::REG_REC_BUFFER_SIZE_LO_ADDR
?REG_REC_BUFFER_SIZE_LO_ADDR@replay_block_control@rfnoc@uhd@@2IB DATA
; public: static unsigned int const uhd::rfnoc::replay_block_control::REG_REC_FULLNESS_HI_ADDR
?REG_REC_FULLNESS_HI_ADDR@replay_block_control@rfnoc@uhd@@2IB DATA
; public: static unsigned int const uhd::rfnoc::replay_block_control::REG_REC_FULLNESS_LO_ADDR
?REG_REC_FULLNESS_LO_ADDR@replay_block_control@rfnoc@uhd@@2IB DATA
; public: static unsigned int const uhd::rfnoc::replay_block_control::REG_REC_POS_HI_ADDR
?REG_REC_POS_HI_ADDR@replay_block_control@rfnoc@uhd@@2IB DATA
; public: static unsigned int const uhd::rfnoc::replay_block_control::REG_REC_POS_LO_ADDR
?REG_REC_POS_LO_ADDR@replay_block_control@rfnoc@uhd@@2IB DATA
; public: static unsigned int const uhd::rfnoc::replay_block_control::REG_REC_RESTART_ADDR
?REG_REC_RESTART_ADDR@replay_block_control@rfnoc@uhd@@2IB DATA
; public: static unsigned int const uhd::rfnoc::fft_block_control::REG_RESET_ADDR
?REG_RESET_ADDR@fft_block_control@rfnoc@uhd@@2IB DATA
; public: static unsigned int const uhd::rfnoc::fft_block_control::REG_RESET_ADDR_V1
?REG_RESET_ADDR_V1@fft_block_control@rfnoc@uhd@@2IB DATA
; public: static unsigned int const uhd::rfnoc::fosphor_block_control::REG_SCALE_ADDR
?REG_SCALE_ADDR@fosphor_block_control@rfnoc@uhd@@2IB DATA
; public: static unsigned int const uhd::rfnoc::fft_block_control::REG_SCALING_ADDR
?REG_SCALING_ADDR@fft_block_control@rfnoc@uhd@@2IB DATA
; public: static unsigned int const uhd::rfnoc::fft_block_control::REG_SCALING_ADDR_V1
?REG_SCALING_ADDR_V1@fft_block_control@rfnoc@uhd@@2IB DATA
; public: static unsigned int const uhd::rfnoc::null_block_control::REG_SNK_LINE_CNT_HI
?REG_SNK_LINE_CNT_HI@null_block_control@rfnoc@uhd@@2IB DATA
; public: static unsigned int const uhd::rfnoc::null_block_control::REG_SNK_LINE_CNT_LO
?REG_SNK_LINE_CNT_LO@null_block_control@rfnoc@uhd@@2IB DATA
; public: static unsigned int const uhd::rfnoc::null_block_control::REG_SNK_PKT_CNT_HI
?REG_SNK_PKT_CNT_HI@null_block_control@rfnoc@uhd@@2IB DATA
; public: static unsigned int const uhd::rfnoc::null_block_control::REG_SNK_PKT_CNT_LO
?REG_SNK_PKT_CNT_LO@null_block_control@rfnoc@uhd@@2IB DATA
; public: static unsigned int const uhd::rfnoc::siggen_block_control::REG_SPP_OFFSET
?REG_SPP_OFFSET@siggen_block_control@rfnoc@uhd@@2IB DATA
; public: static unsigned int const uhd::rfnoc::null_block_control::REG_SRC_BYTES_PER_PKT
?REG_SRC_BYTES_PER_PKT@null_block_control@rfnoc@uhd@@2IB DATA
; public: static unsigned int const uhd::rfnoc::null_block_control::REG_SRC_LINES_PER_PKT
?REG_SRC_LINES_PER_PKT@null_block_control@rfnoc@uhd@@2IB DATA
; public: static unsigned int const uhd::rfnoc::null_block_control::REG_SRC_LINE_CNT_HI
?REG_SRC_LINE_CNT_HI@null_block_control@rfnoc@uhd@@2IB DATA
; public: static unsigned int const uhd::rfnoc::null_block_control::REG_SRC_LINE_CNT_LO
?REG_SRC_LINE_CNT_LO@null_block_control@rfnoc@uhd@@2IB DATA
; public: static unsigned int const uhd::rfnoc::null_block_control::REG_SRC_PKT_CNT_HI
?REG_SRC_PKT_CNT_HI@null_block_control@rfnoc@uhd@@2IB DATA
; public: static unsigned int const uhd::rfnoc::null_block_control::REG_SRC_PKT_CNT_LO
?REG_SRC_PKT_CNT_LO@null_block_control@rfnoc@uhd@@2IB DATA
; public: static unsigned int const uhd::rfnoc::null_block_control::REG_SRC_THROTTLE_CYC
?REG_SRC_THROTTLE_CYC@null_block_control@rfnoc@uhd@@2IB DATA
; public: static unsigned int const uhd::rfnoc::moving_average_block_control::REG_SUM_LEN_ADDR
?REG_SUM_LEN_ADDR@moving_average_block_control@rfnoc@uhd@@2IB DATA
; public: static unsigned int const uhd::rfnoc::fosphor_block_control::REG_TDECAY_ADDR
?REG_TDECAY_ADDR@fosphor_block_control@rfnoc@uhd@@2IB DATA
; public: static unsigned int const uhd::rfnoc::fosphor_block_control::REG_TRISE_ADDR
?REG_TRISE_ADDR@fosphor_block_control@rfnoc@uhd@@2IB DATA
; public: static unsigned int const uhd::rfnoc::lc_block_control::REG_USER_KEY
?REG_USER_KEY@lc_block_control@rfnoc@uhd@@2IB DATA
; public: static unsigned int const uhd::rfnoc::siggen_block_control::REG_WAVEFORM_OFFSET
?REG_WAVEFORM_OFFSET@siggen_block_control@rfnoc@uhd@@2IB DATA
; public: static unsigned int const uhd::rfnoc::fosphor_block_control::REG_WF_CTRL_ADDR
?REG_WF_CTRL_ADDR@fosphor_block_control@rfnoc@uhd@@2IB DATA
; public: static unsigned int const uhd::rfnoc::fosphor_block_control::REG_WF_DECIM_ADDR
?REG_WF_DECIM_ADDR@fosphor_block_control@rfnoc@uhd@@2IB DATA
; public: static unsigned int const uhd::rfnoc::keep_one_in_n_block_control::REG_WIDTH_N_OFFSET
?REG_WIDTH_N_OFFSET@keep_one_in_n_block_control@rfnoc@uhd@@2IB DATA
; public: static unsigned int const uhd::rfnoc::window_block_control::REG_WINDOW_BLOCK_SIZE
?REG_WINDOW_BLOCK_SIZE@window_block_control@rfnoc@uhd@@2IB DATA
; public: static unsigned int const uhd::rfnoc::window_block_control::REG_WINDOW_LEN_OFFSET
?REG_WINDOW_LEN_OFFSET@window_block_control@rfnoc@uhd@@2IB DATA
; public: static unsigned int const uhd::rfnoc::window_block_control::REG_WINDOW_LOAD_COEFF_LAST_OFFSET
?REG_WINDOW_LOAD_COEFF_LAST_OFFSET@window_block_control@rfnoc@uhd@@2IB DATA
; public: static unsigned int const uhd::rfnoc::window_block_control::REG_WINDOW_LOAD_COEFF_OFFSET
?REG_WINDOW_LOAD_COEFF_OFFSET@window_block_control@rfnoc@uhd@@2IB DATA
; public: static unsigned int const uhd::rfnoc::window_block_control::REG_WINDOW_MAX_LEN_OFFSET
?REG_WINDOW_MAX_LEN_OFFSET@window_block_control@rfnoc@uhd@@2IB DATA
; public: static unsigned int const uhd::rfnoc::replay_block_control::REPLAY_ADDR_W
?REPLAY_ADDR_W@replay_block_control@rfnoc@uhd@@2IB DATA
; public: static unsigned int const uhd::rfnoc::replay_block_control::REPLAY_BLOCK_OFFSET
?REPLAY_BLOCK_OFFSET@replay_block_control@rfnoc@uhd@@2IB DATA
; private: static unsigned __int64 const uhd::rfnoc::chdr::ctrl_payload::SEQ_NUM_OFFSET
?SEQ_NUM_OFFSET@ctrl_payload@chdr@rfnoc@uhd@@0_KB DATA
; private: static unsigned __int64 const uhd::rfnoc::chdr::ctrl_payload::SEQ_NUM_WIDTH
?SEQ_NUM_WIDTH@ctrl_payload@chdr@rfnoc@uhd@@0_KB DATA
; private: static unsigned __int64 const uhd::rfnoc::chdr::ctrl_payload::SRC_EPID_OFFSET
?SRC_EPID_OFFSET@ctrl_payload@chdr@rfnoc@uhd@@0_KB DATA
; private: static unsigned __int64 const uhd::rfnoc::chdr::strc_payload::SRC_EPID_OFFSET
?SRC_EPID_OFFSET@strc_payload@chdr@rfnoc@uhd@@0_KB DATA
; private: static unsigned __int64 const uhd::rfnoc::chdr::strs_payload::SRC_EPID_OFFSET
?SRC_EPID_OFFSET@strs_payload@chdr@rfnoc@uhd@@0_KB DATA
; private: static unsigned __int64 const uhd::rfnoc::chdr::ctrl_payload::SRC_EPID_WIDTH
?SRC_EPID_WIDTH@ctrl_payload@chdr@rfnoc@uhd@@0_KB DATA
; private: static unsigned __int64 const uhd::rfnoc::chdr::strc_payload::SRC_EPID_WIDTH
?SRC_EPID_WIDTH@strc_payload@chdr@rfnoc@uhd@@0_KB DATA
; private: static unsigned __int64 const uhd::rfnoc::chdr::strs_payload::SRC_EPID_WIDTH
?SRC_EPID_WIDTH@strs_payload@chdr@rfnoc@uhd@@0_KB DATA
; private: static unsigned __int64 const uhd::rfnoc::chdr::ctrl_payload::SRC_PORT_OFFSET
?SRC_PORT_OFFSET@ctrl_payload@chdr@rfnoc@uhd@@0_KB DATA
; private: static unsigned __int64 const uhd::rfnoc::chdr::ctrl_payload::SRC_PORT_WIDTH
?SRC_PORT_WIDTH@ctrl_payload@chdr@rfnoc@uhd@@0_KB DATA
; public: static unsigned int const uhd::rfnoc::ddc_block_control::SR_COEFFS_ADDR
?SR_COEFFS_ADDR@ddc_block_control@rfnoc@uhd@@2IB DATA
; public: static unsigned int const uhd::rfnoc::ddc_block_control::SR_CONFIG_ADDR
?SR_CONFIG_ADDR@ddc_block_control@rfnoc@uhd@@2IB DATA
; public: static unsigned int const uhd::rfnoc::duc_block_control::SR_CONFIG_ADDR
?SR_CONFIG_ADDR@duc_block_control@rfnoc@uhd@@2IB DATA
; public: static unsigned int const uhd::rfnoc::ddc_block_control::SR_DECIM_ADDR
?SR_DECIM_ADDR@ddc_block_control@rfnoc@uhd@@2IB DATA
; public: static unsigned int const uhd::rfnoc::ddc_block_control::SR_FREQ_ADDR
?SR_FREQ_ADDR@ddc_block_control@rfnoc@uhd@@2IB DATA
; public: static unsigned int const uhd::rfnoc::duc_block_control::SR_FREQ_ADDR
?SR_FREQ_ADDR@duc_block_control@rfnoc@uhd@@2IB DATA
; public: static unsigned int const uhd::rfnoc::duc_block_control::SR_INTERP_ADDR
?SR_INTERP_ADDR@duc_block_control@rfnoc@uhd@@2IB DATA
; public: static unsigned int const uhd::rfnoc::ddc_block_control::SR_MUX_ADDR
?SR_MUX_ADDR@ddc_block_control@rfnoc@uhd@@2IB DATA
; public: static unsigned int const uhd::rfnoc::ddc_block_control::SR_M_ADDR
?SR_M_ADDR@ddc_block_control@rfnoc@uhd@@2IB DATA
; public: static unsigned int const uhd::rfnoc::duc_block_control::SR_M_ADDR
?SR_M_ADDR@duc_block_control@rfnoc@uhd@@2IB DATA
; public: static unsigned int const uhd::rfnoc::ddc_block_control::SR_N_ADDR
?SR_N_ADDR@ddc_block_control@rfnoc@uhd@@2IB DATA
; public: static unsigned int const uhd::rfnoc::duc_block_control::SR_N_ADDR
?SR_N_ADDR@duc_block_control@rfnoc@uhd@@2IB DATA
; public: static unsigned int const uhd::rfnoc::ddc_block_control::SR_SCALE_IQ_ADDR
?SR_SCALE_IQ_ADDR@ddc_block_control@rfnoc@uhd@@2IB DATA
; public: static unsigned int const uhd::rfnoc::duc_block_control::SR_SCALE_IQ_ADDR
?SR_SCALE_IQ_ADDR@duc_block_control@rfnoc@uhd@@2IB DATA
; public: static unsigned int const uhd::rfnoc::ddc_block_control::SR_TIME_INCR_ADDR
?SR_TIME_INCR_ADDR@ddc_block_control@rfnoc@uhd@@2IB DATA
; public: static unsigned int const uhd::rfnoc::duc_block_control::SR_TIME_INCR_ADDR
?SR_TIME_INCR_ADDR@duc_block_control@rfnoc@uhd@@2IB DATA
; private: static unsigned __int64 const uhd::rfnoc::chdr::strs_payload::STATUS_INFO_OFFSET
?STATUS_INFO_OFFSET@strs_payload@chdr@rfnoc@uhd@@0_KB DATA
; private: static unsigned __int64 const uhd::rfnoc::chdr::strs_payload::STATUS_INFO_WIDTH
?STATUS_INFO_WIDTH@strs_payload@chdr@rfnoc@uhd@@0_KB DATA
; private: static unsigned __int64 const uhd::rfnoc::chdr::ctrl_payload::STATUS_OFFSET
?STATUS_OFFSET@ctrl_payload@chdr@rfnoc@uhd@@0_KB DATA
; private: static unsigned __int64 const uhd::rfnoc::chdr::strs_payload::STATUS_OFFSET
?STATUS_OFFSET@strs_payload@chdr@rfnoc@uhd@@0_KB DATA
; private: static unsigned __int64 const uhd::rfnoc::chdr::ctrl_payload::STATUS_WIDTH
?STATUS_WIDTH@ctrl_payload@chdr@rfnoc@uhd@@0_KB DATA
; private: static unsigned __int64 const uhd::rfnoc::chdr::strs_payload::STATUS_WIDTH
?STATUS_WIDTH@strs_payload@chdr@rfnoc@uhd@@0_KB DATA
; private: static unsigned __int64 const uhd::rfnoc::chdr::strs_payload::XFER_COUNT_PKTS_OFFSET
?XFER_COUNT_PKTS_OFFSET@strs_payload@chdr@rfnoc@uhd@@0_KB DATA
; private: static unsigned __int64 const uhd::rfnoc::chdr::strs_payload::XFER_COUNT_PKTS_WIDTH
?XFER_COUNT_PKTS_WIDTH@strs_payload@chdr@rfnoc@uhd@@0_KB DATA
; private: void __cdecl std::<struct uhd::usrp::subdev_spec_pair_t,class std::<struct uhd::usrp::subdev_spec_pair_t>>::_Buy_nonzero(unsigned __int64)__ptr64 
?_Buy_nonzero@?$vector@Usubdev_spec_pair_t@usrp@uhd@@V?$allocator@Usubdev_spec_pair_t@usrp@uhd@@@std@@@std@@AEAAX_K@Z
; private: void __cdecl std::<class uhd::range_t,class std::<class uhd::range_t>>::_Buy_nonzero(unsigned __int64)__ptr64 
?_Buy_nonzero@?$vector@Vrange_t@uhd@@V?$allocator@Vrange_t@uhd@@@std@@@std@@AEAAX_K@Z
; private: void __cdecl std::<struct uhd::usrp::subdev_spec_pair_t,class std::<struct uhd::usrp::subdev_spec_pair_t>>::_Buy_raw(unsigned __int64)__ptr64 
?_Buy_raw@?$vector@Usubdev_spec_pair_t@usrp@uhd@@V?$allocator@Usubdev_spec_pair_t@usrp@uhd@@@std@@@std@@AEAAX_K@Z
; private: void __cdecl std::<class uhd::range_t,class std::<class uhd::range_t>>::_Buy_raw(unsigned __int64)__ptr64 
?_Buy_raw@?$vector@Vrange_t@uhd@@V?$allocator@Vrange_t@uhd@@@std@@@std@@AEAAX_K@Z
; private: unsigned __int64 __cdecl std::<struct uhd::usrp::subdev_spec_pair_t,class std::<struct uhd::usrp::subdev_spec_pair_t>>::_Calculate_growth(unsigned __int64)const __ptr64 
?_Calculate_growth@?$vector@Usubdev_spec_pair_t@usrp@uhd@@V?$allocator@Usubdev_spec_pair_t@usrp@uhd@@@std@@@std@@AEBA_K_K@Z
; private: unsigned __int64 __cdecl std::<class uhd::range_t,class std::<class uhd::range_t>>::_Calculate_growth(unsigned __int64)const __ptr64 
?_Calculate_growth@?$vector@Vrange_t@uhd@@V?$allocator@Vrange_t@uhd@@@std@@@std@@AEBA_K_K@Z
; private: void __cdecl std::<struct uhd::usrp::subdev_spec_pair_t,class std::<struct uhd::usrp::subdev_spec_pair_t>>::_Change_array(struct uhd::usrp::subdev_spec_pair_t *__ptr64 const,unsigned __int64,unsigned __int64)__ptr64 
?_Change_array@?$vector@Usubdev_spec_pair_t@usrp@uhd@@V?$allocator@Usubdev_spec_pair_t@usrp@uhd@@@std@@@std@@AEAAXQEAUsubdev_spec_pair_t@usrp@uhd@@_K1@Z
; private: void __cdecl std::<class uhd::range_t,class std::<class uhd::range_t>>::_Change_array(class uhd::range_t *__ptr64 const,unsigned __int64,unsigned __int64)__ptr64 
?_Change_array@?$vector@Vrange_t@uhd@@V?$allocator@Vrange_t@uhd@@@std@@@std@@AEAAXQEAVrange_t@uhd@@_K1@Z
; private: void __cdecl std::<struct uhd::usrp::subdev_spec_pair_t,class std::<struct uhd::usrp::subdev_spec_pair_t>>::_Clear_and_reserve_geometric(unsigned __int64)__ptr64 
?_Clear_and_reserve_geometric@?$vector@Usubdev_spec_pair_t@usrp@uhd@@V?$allocator@Usubdev_spec_pair_t@usrp@uhd@@@std@@@std@@AEAAX_K@Z
; private: void __cdecl std::<class uhd::range_t,class std::<class uhd::range_t>>::_Clear_and_reserve_geometric(unsigned __int64)__ptr64 
?_Clear_and_reserve_geometric@?$vector@Vrange_t@uhd@@V?$allocator@Vrange_t@uhd@@@std@@@std@@AEAAX_K@Z
; private: void __cdecl std::<struct uhd::usrp::subdev_spec_pair_t,class std::<struct uhd::usrp::subdev_spec_pair_t>>::_Copy_assign(class std::<struct uhd::usrp::subdev_spec_pair_t,class std::<struct uhd::usrp::subdev_spec_pair_t>> const &__ptr64 ,struct std::<bool,0x1ULL>)__ptr64 
?_Copy_assign@?$vector@Usubdev_spec_pair_t@usrp@uhd@@V?$allocator@Usubdev_spec_pair_t@usrp@uhd@@@std@@@std@@AEAAXAEBV12@U?$integral_constant@_N$00@2@@Z
; private: void __cdecl std::<struct uhd::usrp::subdev_spec_pair_t,class std::<struct uhd::usrp::subdev_spec_pair_t>>::_Copy_assign(class std::<struct uhd::usrp::subdev_spec_pair_t,class std::<struct uhd::usrp::subdev_spec_pair_t>> const &__ptr64 ,struct std::<bool,0x0ULL>)__ptr64 
?_Copy_assign@?$vector@Usubdev_spec_pair_t@usrp@uhd@@V?$allocator@Usubdev_spec_pair_t@usrp@uhd@@@std@@@std@@AEAAXAEBV12@U?$integral_constant@_N$0A@@2@@Z
; private: void __cdecl std::<class uhd::range_t,class std::<class uhd::range_t>>::_Copy_assign(class std::<class uhd::range_t,class std::<class uhd::range_t>> const &__ptr64 ,struct std::<bool,0x1ULL>)__ptr64 
?_Copy_assign@?$vector@Vrange_t@uhd@@V?$allocator@Vrange_t@uhd@@@std@@@std@@AEAAXAEBV12@U?$integral_constant@_N$00@2@@Z
; private: void __cdecl std::<class uhd::range_t,class std::<class uhd::range_t>>::_Copy_assign(class std::<class uhd::range_t,class std::<class uhd::range_t>> const &__ptr64 ,struct std::<bool,0x0ULL>)__ptr64 
?_Copy_assign@?$vector@Vrange_t@uhd@@V?$allocator@Vrange_t@uhd@@@std@@@std@@AEAAXAEBV12@U?$integral_constant@_N$0A@@2@@Z
; private: void __cdecl std::<struct uhd::usrp::subdev_spec_pair_t,class std::<struct uhd::usrp::subdev_spec_pair_t>>::_Destroy(struct uhd::usrp::subdev_spec_pair_t *__ptr64,struct uhd::usrp::subdev_spec_pair_t *__ptr64)__ptr64 
?_Destroy@?$vector@Usubdev_spec_pair_t@usrp@uhd@@V?$allocator@Usubdev_spec_pair_t@usrp@uhd@@@std@@@std@@AEAAXPEAUsubdev_spec_pair_t@usrp@uhd@@0@Z
; private: void __cdecl std::<class uhd::range_t,class std::<class uhd::range_t>>::_Destroy(class uhd::range_t *__ptr64,class uhd::range_t *__ptr64)__ptr64 
?_Destroy@?$vector@Vrange_t@uhd@@V?$allocator@Vrange_t@uhd@@@std@@@std@@AEAAXPEAVrange_t@uhd@@0@Z
; private: class std::<struct uhd::usrp::subdev_spec_pair_t> &__ptr64 __cdecl std::<struct uhd::usrp::subdev_spec_pair_t,class std::<struct uhd::usrp::subdev_spec_pair_t>>::_Getal(void)__ptr64 
?_Getal@?$vector@Usubdev_spec_pair_t@usrp@uhd@@V?$allocator@Usubdev_spec_pair_t@usrp@uhd@@@std@@@std@@AEAAAEAV?$allocator@Usubdev_spec_pair_t@usrp@uhd@@@2@XZ
; private: class std::<struct uhd::usrp::subdev_spec_pair_t> const &__ptr64 __cdecl std::<struct uhd::usrp::subdev_spec_pair_t,class std::<struct uhd::usrp::subdev_spec_pair_t>>::_Getal(void)const __ptr64 
?_Getal@?$vector@Usubdev_spec_pair_t@usrp@uhd@@V?$allocator@Usubdev_spec_pair_t@usrp@uhd@@@std@@@std@@AEBAAEBV?$allocator@Usubdev_spec_pair_t@usrp@uhd@@@2@XZ
; private: class std::<class uhd::range_t> &__ptr64 __cdecl std::<class uhd::range_t,class std::<class uhd::range_t>>::_Getal(void)__ptr64 
?_Getal@?$vector@Vrange_t@uhd@@V?$allocator@Vrange_t@uhd@@@std@@@std@@AEAAAEAV?$allocator@Vrange_t@uhd@@@2@XZ
; private: class std::<class uhd::range_t> const &__ptr64 __cdecl std::<class uhd::range_t,class std::<class uhd::range_t>>::_Getal(void)const __ptr64 
?_Getal@?$vector@Vrange_t@uhd@@V?$allocator@Vrange_t@uhd@@@std@@@std@@AEBAAEBV?$allocator@Vrange_t@uhd@@@2@XZ
; private: class std::<class std::<struct std::<struct uhd::usrp::subdev_spec_pair_t>>> __cdecl std::<struct uhd::usrp::subdev_spec_pair_t,class std::<struct uhd::usrp::subdev_spec_pair_t>>::_Make_iterator(struct uhd::usrp::subdev_spec_pair_t *__ptr64 const)__ptr64 
?_Make_iterator@?$vector@Usubdev_spec_pair_t@usrp@uhd@@V?$allocator@Usubdev_spec_pair_t@usrp@uhd@@@std@@@std@@AEAA?AV?$_Vector_iterator@V?$_Vector_val@U?$_Simple_types@Usubdev_spec_pair_t@usrp@uhd@@@std@@@std@@@2@QEAUsubdev_spec_pair_t@usrp@uhd@@@Z
; private: class std::<class std::<struct std::<class uhd::range_t>>> __cdecl std::<class uhd::range_t,class std::<class uhd::range_t>>::_Make_iterator(class uhd::range_t *__ptr64 const)__ptr64 
?_Make_iterator@?$vector@Vrange_t@uhd@@V?$allocator@Vrange_t@uhd@@@std@@@std@@AEAA?AV?$_Vector_iterator@V?$_Vector_val@U?$_Simple_types@Vrange_t@uhd@@@std@@@std@@@2@QEAVrange_t@uhd@@@Z
; private: class std::<class std::<struct std::<struct uhd::usrp::subdev_spec_pair_t>>> __cdecl std::<struct uhd::usrp::subdev_spec_pair_t,class std::<struct uhd::usrp::subdev_spec_pair_t>>::_Make_iterator_offset(unsigned __int64)__ptr64 
?_Make_iterator_offset@?$vector@Usubdev_spec_pair_t@usrp@uhd@@V?$allocator@Usubdev_spec_pair_t@usrp@uhd@@@std@@@std@@AEAA?AV?$_Vector_iterator@V?$_Vector_val@U?$_Simple_types@Usubdev_spec_pair_t@usrp@uhd@@@std@@@std@@@2@_K@Z
; private: class std::<class std::<struct std::<class uhd::range_t>>> __cdecl std::<class uhd::range_t,class std::<class uhd::range_t>>::_Make_iterator_offset(unsigned __int64)__ptr64 
?_Make_iterator_offset@?$vector@Vrange_t@uhd@@V?$allocator@Vrange_t@uhd@@@std@@@std@@AEAA?AV?$_Vector_iterator@V?$_Vector_val@U?$_Simple_types@Vrange_t@uhd@@@std@@@std@@@2@_K@Z
; private: void __cdecl std::<struct uhd::usrp::subdev_spec_pair_t,class std::<struct uhd::usrp::subdev_spec_pair_t>>::_Move_assign(class std::<struct uhd::usrp::subdev_spec_pair_t,class std::<struct uhd::usrp::subdev_spec_pair_t>> &__ptr64 ,struct std::<bool,0x1ULL>)__ptr64 
?_Move_assign@?$vector@Usubdev_spec_pair_t@usrp@uhd@@V?$allocator@Usubdev_spec_pair_t@usrp@uhd@@@std@@@std@@AEAAXAEAV12@U?$integral_constant@_N$00@2@@Z
; private: void __cdecl std::<struct uhd::usrp::subdev_spec_pair_t,class std::<struct uhd::usrp::subdev_spec_pair_t>>::_Move_assign(class std::<struct uhd::usrp::subdev_spec_pair_t,class std::<struct uhd::usrp::subdev_spec_pair_t>> &__ptr64 ,struct std::<bool,0x0ULL>)__ptr64 
?_Move_assign@?$vector@Usubdev_spec_pair_t@usrp@uhd@@V?$allocator@Usubdev_spec_pair_t@usrp@uhd@@@std@@@std@@AEAAXAEAV12@U?$integral_constant@_N$0A@@2@@Z
; private: void __cdecl std::<struct uhd::usrp::subdev_spec_pair_t,class std::<struct uhd::usrp::subdev_spec_pair_t>>::_Move_assign(class std::<struct uhd::usrp::subdev_spec_pair_t,class std::<struct uhd::usrp::subdev_spec_pair_t>> &__ptr64 ,struct std::_Equal_allocators)__ptr64 
?_Move_assign@?$vector@Usubdev_spec_pair_t@usrp@uhd@@V?$allocator@Usubdev_spec_pair_t@usrp@uhd@@@std@@@std@@AEAAXAEAV12@U_Equal_allocators@2@@Z
; private: void __cdecl std::<class uhd::range_t,class std::<class uhd::range_t>>::_Move_assign(class std::<class uhd::range_t,class std::<class uhd::range_t>> &__ptr64 ,struct std::<bool,0x1ULL>)__ptr64 
?_Move_assign@?$vector@Vrange_t@uhd@@V?$allocator@Vrange_t@uhd@@@std@@@std@@AEAAXAEAV12@U?$integral_constant@_N$00@2@@Z
; private: void __cdecl std::<class uhd::range_t,class std::<class uhd::range_t>>::_Move_assign(class std::<class uhd::range_t,class std::<class uhd::range_t>> &__ptr64 ,struct std::<bool,0x0ULL>)__ptr64 
?_Move_assign@?$vector@Vrange_t@uhd@@V?$allocator@Vrange_t@uhd@@@std@@@std@@AEAAXAEAV12@U?$integral_constant@_N$0A@@2@@Z
; private: void __cdecl std::<class uhd::range_t,class std::<class uhd::range_t>>::_Move_assign(class std::<class uhd::range_t,class std::<class uhd::range_t>> &__ptr64 ,struct std::_Equal_allocators)__ptr64 
?_Move_assign@?$vector@Vrange_t@uhd@@V?$allocator@Vrange_t@uhd@@@std@@@std@@AEAAXAEAV12@U_Equal_allocators@2@@Z
; private: void __cdecl std::<struct uhd::usrp::subdev_spec_pair_t,class std::<struct uhd::usrp::subdev_spec_pair_t>>::_Move_construct(class std::<struct uhd::usrp::subdev_spec_pair_t,class std::<struct uhd::usrp::subdev_spec_pair_t>> &__ptr64 ,struct std::<bool,0x1ULL>)__ptr64 
?_Move_construct@?$vector@Usubdev_spec_pair_t@usrp@uhd@@V?$allocator@Usubdev_spec_pair_t@usrp@uhd@@@std@@@std@@AEAAXAEAV12@U?$integral_constant@_N$00@2@@Z
; private: void __cdecl std::<struct uhd::usrp::subdev_spec_pair_t,class std::<struct uhd::usrp::subdev_spec_pair_t>>::_Move_construct(class std::<struct uhd::usrp::subdev_spec_pair_t,class std::<struct uhd::usrp::subdev_spec_pair_t>> &__ptr64 ,struct std::<bool,0x0ULL>)__ptr64 
?_Move_construct@?$vector@Usubdev_spec_pair_t@usrp@uhd@@V?$allocator@Usubdev_spec_pair_t@usrp@uhd@@@std@@@std@@AEAAXAEAV12@U?$integral_constant@_N$0A@@2@@Z
; private: void __cdecl std::<class uhd::range_t,class std::<class uhd::range_t>>::_Move_construct(class std::<class uhd::range_t,class std::<class uhd::range_t>> &__ptr64 ,struct std::<bool,0x1ULL>)__ptr64 
?_Move_construct@?$vector@Vrange_t@uhd@@V?$allocator@Vrange_t@uhd@@@std@@@std@@AEAAXAEAV12@U?$integral_constant@_N$00@2@@Z
; private: void __cdecl std::<class uhd::range_t,class std::<class uhd::range_t>>::_Move_construct(class std::<class uhd::range_t,class std::<class uhd::range_t>> &__ptr64 ,struct std::<bool,0x0ULL>)__ptr64 
?_Move_construct@?$vector@Vrange_t@uhd@@V?$allocator@Vrange_t@uhd@@@std@@@std@@AEAAXAEAV12@U?$integral_constant@_N$0A@@2@@Z
; private: void __cdecl std::<struct uhd::usrp::subdev_spec_pair_t,class std::<struct uhd::usrp::subdev_spec_pair_t>>::_Orphan_range(struct uhd::usrp::subdev_spec_pair_t *__ptr64,struct uhd::usrp::subdev_spec_pair_t *__ptr64)const __ptr64 
?_Orphan_range@?$vector@Usubdev_spec_pair_t@usrp@uhd@@V?$allocator@Usubdev_spec_pair_t@usrp@uhd@@@std@@@std@@AEBAXPEAUsubdev_spec_pair_t@usrp@uhd@@0@Z
; private: void __cdecl std::<class uhd::range_t,class std::<class uhd::range_t>>::_Orphan_range(class uhd::range_t *__ptr64,class uhd::range_t *__ptr64)const __ptr64 
?_Orphan_range@?$vector@Vrange_t@uhd@@V?$allocator@Vrange_t@uhd@@@std@@@std@@AEBAXPEAVrange_t@uhd@@0@Z
; private: void __cdecl std::<struct uhd::usrp::subdev_spec_pair_t,class std::<struct uhd::usrp::subdev_spec_pair_t>>::_Reallocate_exactly(unsigned __int64)__ptr64 
?_Reallocate_exactly@?$vector@Usubdev_spec_pair_t@usrp@uhd@@V?$allocator@Usubdev_spec_pair_t@usrp@uhd@@@std@@@std@@AEAAX_K@Z
; private: void __cdecl std::<class uhd::range_t,class std::<class uhd::range_t>>::_Reallocate_exactly(unsigned __int64)__ptr64 
?_Reallocate_exactly@?$vector@Vrange_t@uhd@@V?$allocator@Vrange_t@uhd@@@std@@@std@@AEAAX_K@Z
; private: void __cdecl std::<struct uhd::usrp::subdev_spec_pair_t,class std::<struct uhd::usrp::subdev_spec_pair_t>>::_Tidy(void)__ptr64 
?_Tidy@?$vector@Usubdev_spec_pair_t@usrp@uhd@@V?$allocator@Usubdev_spec_pair_t@usrp@uhd@@@std@@@std@@AEAAXXZ
; private: void __cdecl std::<class uhd::range_t,class std::<class uhd::range_t>>::_Tidy(void)__ptr64 
?_Tidy@?$vector@Vrange_t@uhd@@V?$allocator@Vrange_t@uhd@@@std@@@std@@AEAAXXZ
; private: struct uhd::usrp::subdev_spec_pair_t *__ptr64 __cdecl std::<struct uhd::usrp::subdev_spec_pair_t,class std::<struct uhd::usrp::subdev_spec_pair_t>>::_Ufill(struct uhd::usrp::subdev_spec_pair_t *__ptr64,unsigned __int64,struct uhd::usrp::subdev_spec_pair_t const &__ptr64 )__ptr64 
?_Ufill@?$vector@Usubdev_spec_pair_t@usrp@uhd@@V?$allocator@Usubdev_spec_pair_t@usrp@uhd@@@std@@@std@@AEAAPEAUsubdev_spec_pair_t@usrp@uhd@@PEAU345@_KAEBU345@@Z
; private: struct uhd::usrp::subdev_spec_pair_t *__ptr64 __cdecl std::<struct uhd::usrp::subdev_spec_pair_t,class std::<struct uhd::usrp::subdev_spec_pair_t>>::_Ufill(struct uhd::usrp::subdev_spec_pair_t *__ptr64,unsigned __int64,struct std::_Value_init_tag)__ptr64 
?_Ufill@?$vector@Usubdev_spec_pair_t@usrp@uhd@@V?$allocator@Usubdev_spec_pair_t@usrp@uhd@@@std@@@std@@AEAAPEAUsubdev_spec_pair_t@usrp@uhd@@PEAU345@_KU_Value_init_tag@2@@Z
; private: class uhd::range_t *__ptr64 __cdecl std::<class uhd::range_t,class std::<class uhd::range_t>>::_Ufill(class uhd::range_t *__ptr64,unsigned __int64,class uhd::range_t const &__ptr64 )__ptr64 
?_Ufill@?$vector@Vrange_t@uhd@@V?$allocator@Vrange_t@uhd@@@std@@@std@@AEAAPEAVrange_t@uhd@@PEAV34@_KAEBV34@@Z
; private: class uhd::range_t *__ptr64 __cdecl std::<class uhd::range_t,class std::<class uhd::range_t>>::_Ufill(class uhd::range_t *__ptr64,unsigned __int64,struct std::_Value_init_tag)__ptr64 
?_Ufill@?$vector@Vrange_t@uhd@@V?$allocator@Vrange_t@uhd@@@std@@@std@@AEAAPEAVrange_t@uhd@@PEAV34@_KU_Value_init_tag@2@@Z
; private: struct uhd::usrp::subdev_spec_pair_t *__ptr64 __cdecl std::<struct uhd::usrp::subdev_spec_pair_t,class std::<struct uhd::usrp::subdev_spec_pair_t>>::_Umove(struct uhd::usrp::subdev_spec_pair_t *__ptr64,struct uhd::usrp::subdev_spec_pair_t *__ptr64,struct uhd::usrp::subdev_spec_pair_t *__ptr64)__ptr64 
?_Umove@?$vector@Usubdev_spec_pair_t@usrp@uhd@@V?$allocator@Usubdev_spec_pair_t@usrp@uhd@@@std@@@std@@AEAAPEAUsubdev_spec_pair_t@usrp@uhd@@PEAU345@00@Z
; private: class uhd::range_t *__ptr64 __cdecl std::<class uhd::range_t,class std::<class uhd::range_t>>::_Umove(class uhd::range_t *__ptr64,class uhd::range_t *__ptr64,class uhd::range_t *__ptr64)__ptr64 
?_Umove@?$vector@Vrange_t@uhd@@V?$allocator@Vrange_t@uhd@@@std@@@std@@AEAAPEAVrange_t@uhd@@PEAV34@00@Z
; private: void __cdecl std::<struct uhd::usrp::subdev_spec_pair_t,class std::<struct uhd::usrp::subdev_spec_pair_t>>::_Umove_if_noexcept1(struct uhd::usrp::subdev_spec_pair_t *__ptr64,struct uhd::usrp::subdev_spec_pair_t *__ptr64,struct uhd::usrp::subdev_spec_pair_t *__ptr64,struct std::<bool,0x1ULL>)__ptr64 
?_Umove_if_noexcept1@?$vector@Usubdev_spec_pair_t@usrp@uhd@@V?$allocator@Usubdev_spec_pair_t@usrp@uhd@@@std@@@std@@AEAAXPEAUsubdev_spec_pair_t@usrp@uhd@@00U?$integral_constant@_N$00@2@@Z
; private: void __cdecl std::<struct uhd::usrp::subdev_spec_pair_t,class std::<struct uhd::usrp::subdev_spec_pair_t>>::_Umove_if_noexcept1(struct uhd::usrp::subdev_spec_pair_t *__ptr64,struct uhd::usrp::subdev_spec_pair_t *__ptr64,struct uhd::usrp::subdev_spec_pair_t *__ptr64,struct std::<bool,0x0ULL>)__ptr64 
?_Umove_if_noexcept1@?$vector@Usubdev_spec_pair_t@usrp@uhd@@V?$allocator@Usubdev_spec_pair_t@usrp@uhd@@@std@@@std@@AEAAXPEAUsubdev_spec_pair_t@usrp@uhd@@00U?$integral_constant@_N$0A@@2@@Z
; private: void __cdecl std::<class uhd::range_t,class std::<class uhd::range_t>>::_Umove_if_noexcept1(class uhd::range_t *__ptr64,class uhd::range_t *__ptr64,class uhd::range_t *__ptr64,struct std::<bool,0x1ULL>)__ptr64 
?_Umove_if_noexcept1@?$vector@Vrange_t@uhd@@V?$allocator@Vrange_t@uhd@@@std@@@std@@AEAAXPEAVrange_t@uhd@@00U?$integral_constant@_N$00@2@@Z
; private: void __cdecl std::<class uhd::range_t,class std::<class uhd::range_t>>::_Umove_if_noexcept1(class uhd::range_t *__ptr64,class uhd::range_t *__ptr64,class uhd::range_t *__ptr64,struct std::<bool,0x0ULL>)__ptr64 
?_Umove_if_noexcept1@?$vector@Vrange_t@uhd@@V?$allocator@Vrange_t@uhd@@@std@@@std@@AEAAXPEAVrange_t@uhd@@00U?$integral_constant@_N$0A@@2@@Z
; private: void __cdecl std::<struct uhd::usrp::subdev_spec_pair_t,class std::<struct uhd::usrp::subdev_spec_pair_t>>::_Umove_if_noexcept(struct uhd::usrp::subdev_spec_pair_t *__ptr64,struct uhd::usrp::subdev_spec_pair_t *__ptr64,struct uhd::usrp::subdev_spec_pair_t *__ptr64)__ptr64 
?_Umove_if_noexcept@?$vector@Usubdev_spec_pair_t@usrp@uhd@@V?$allocator@Usubdev_spec_pair_t@usrp@uhd@@@std@@@std@@AEAAXPEAUsubdev_spec_pair_t@usrp@uhd@@00@Z
; private: void __cdecl std::<class uhd::range_t,class std::<class uhd::range_t>>::_Umove_if_noexcept(class uhd::range_t *__ptr64,class uhd::range_t *__ptr64,class uhd::range_t *__ptr64)__ptr64 
?_Umove_if_noexcept@?$vector@Vrange_t@uhd@@V?$allocator@Vrange_t@uhd@@@std@@@std@@AEAAXPEAVrange_t@uhd@@00@Z
; public: struct uhd::usrp::subdev_spec_pair_t *__ptr64 __cdecl std::<struct uhd::usrp::subdev_spec_pair_t,class std::<struct uhd::usrp::subdev_spec_pair_t>>::_Unchecked_begin(void)__ptr64 
?_Unchecked_begin@?$vector@Usubdev_spec_pair_t@usrp@uhd@@V?$allocator@Usubdev_spec_pair_t@usrp@uhd@@@std@@@std@@QEAAPEAUsubdev_spec_pair_t@usrp@uhd@@XZ
; public: struct uhd::usrp::subdev_spec_pair_t const *__ptr64 __cdecl std::<struct uhd::usrp::subdev_spec_pair_t,class std::<struct uhd::usrp::subdev_spec_pair_t>>::_Unchecked_begin(void)const __ptr64 
?_Unchecked_begin@?$vector@Usubdev_spec_pair_t@usrp@uhd@@V?$allocator@Usubdev_spec_pair_t@usrp@uhd@@@std@@@std@@QEBAPEBUsubdev_spec_pair_t@usrp@uhd@@XZ
; public: class uhd::range_t *__ptr64 __cdecl std::<class uhd::range_t,class std::<class uhd::range_t>>::_Unchecked_begin(void)__ptr64 
?_Unchecked_begin@?$vector@Vrange_t@uhd@@V?$allocator@Vrange_t@uhd@@@std@@@std@@QEAAPEAVrange_t@uhd@@XZ
; public: class uhd::range_t const *__ptr64 __cdecl std::<class uhd::range_t,class std::<class uhd::range_t>>::_Unchecked_begin(void)const __ptr64 
?_Unchecked_begin@?$vector@Vrange_t@uhd@@V?$allocator@Vrange_t@uhd@@@std@@@std@@QEBAPEBVrange_t@uhd@@XZ
; public: struct uhd::usrp::subdev_spec_pair_t *__ptr64 __cdecl std::<struct uhd::usrp::subdev_spec_pair_t,class std::<struct uhd::usrp::subdev_spec_pair_t>>::_Unchecked_end(void)__ptr64 
?_Unchecked_end@?$vector@Usubdev_spec_pair_t@usrp@uhd@@V?$allocator@Usubdev_spec_pair_t@usrp@uhd@@@std@@@std@@QEAAPEAUsubdev_spec_pair_t@usrp@uhd@@XZ
; public: struct uhd::usrp::subdev_spec_pair_t const *__ptr64 __cdecl std::<struct uhd::usrp::subdev_spec_pair_t,class std::<struct uhd::usrp::subdev_spec_pair_t>>::_Unchecked_end(void)const __ptr64 
?_Unchecked_end@?$vector@Usubdev_spec_pair_t@usrp@uhd@@V?$allocator@Usubdev_spec_pair_t@usrp@uhd@@@std@@@std@@QEBAPEBUsubdev_spec_pair_t@usrp@uhd@@XZ
; public: class uhd::range_t *__ptr64 __cdecl std::<class uhd::range_t,class std::<class uhd::range_t>>::_Unchecked_end(void)__ptr64 
?_Unchecked_end@?$vector@Vrange_t@uhd@@V?$allocator@Vrange_t@uhd@@@std@@@std@@QEAAPEAVrange_t@uhd@@XZ
; public: class uhd::range_t const *__ptr64 __cdecl std::<class uhd::range_t,class std::<class uhd::range_t>>::_Unchecked_end(void)const __ptr64 
?_Unchecked_end@?$vector@Vrange_t@uhd@@V?$allocator@Vrange_t@uhd@@@std@@@std@@QEBAPEBVrange_t@uhd@@XZ
; private: static void __cdecl std::<struct uhd::usrp::subdev_spec_pair_t,class std::<struct uhd::usrp::subdev_spec_pair_t>>::_Xlength(void)
?_Xlength@?$vector@Usubdev_spec_pair_t@usrp@uhd@@V?$allocator@Usubdev_spec_pair_t@usrp@uhd@@@std@@@std@@CAXXZ
; private: static void __cdecl std::<class uhd::range_t,class std::<class uhd::range_t>>::_Xlength(void)
?_Xlength@?$vector@Vrange_t@uhd@@V?$allocator@Vrange_t@uhd@@@std@@@std@@CAXXZ
; private: static void __cdecl std::<struct uhd::usrp::subdev_spec_pair_t,class std::<struct uhd::usrp::subdev_spec_pair_t>>::_Xrange(void)
?_Xrange@?$vector@Usubdev_spec_pair_t@usrp@uhd@@V?$allocator@Usubdev_spec_pair_t@usrp@uhd@@@std@@@std@@CAXXZ
; private: static void __cdecl std::<class uhd::range_t,class std::<class uhd::range_t>>::_Xrange(void)
?_Xrange@?$vector@Vrange_t@uhd@@V?$allocator@Vrange_t@uhd@@@std@@@std@@CAXXZ
; private: static int __cdecl uhd::usrprio_rpc::usrprio_rpc_client::_boost_error_to_nirio_status(class boost::system::error_code const &__ptr64 )
?_boost_error_to_nirio_status@usrprio_rpc_client@usrprio_rpc@uhd@@CAHAEBVerror_code@system@boost@@@Z
; protected: virtual void __cdecl uhd::niusrprio::niriok_proxy_impl_v1::_close(void)__ptr64 
?_close@niriok_proxy_impl_v1@niusrprio@uhd@@MEAAXXZ
; protected: virtual void __cdecl uhd::niusrprio::niriok_proxy_impl_v2::_close(void)__ptr64 
?_close@niriok_proxy_impl_v2@niusrprio@uhd@@MEAAXXZ
; private: int __cdecl uhd::niusrprio::niusrprio_session::_ensure_fpga_ready(void)__ptr64 
?_ensure_fpga_ready@niusrprio_session@niusrprio@uhd@@AEAAHXZ
; private: class uhd::rfnoc::property_base_t *__ptr64 __cdecl uhd::rfnoc::node_t::_find_property(struct uhd::rfnoc::res_source_info,class std::<char,struct std::<char>,class std::<char>> const &__ptr64 )const __ptr64 
?_find_property@node_t@rfnoc@uhd@@AEBAPEAVproperty_base_t@23@Ures_source_info@23@AEBV?$basic_string@DU?$char_traits@D@std@@V?$allocator@D@2@@std@@@Z
; protected: class std::<char,struct std::<char>,class std::<char>> __cdecl uhd::niusrprio::nifpga_lvbitx::_get_bitstream_checksum(class std::<char,struct std::<char>,class std::<char>> const &__ptr64 )__ptr64 
?_get_bitstream_checksum@nifpga_lvbitx@niusrprio@uhd@@IEAA?AV?$basic_string@DU?$char_traits@D@std@@V?$allocator@D@2@@std@@AEBV45@@Z
; private: bool __cdecl uhd::rfnoc::node_t::_has_port(struct uhd::rfnoc::res_source_info const &__ptr64 )const __ptr64 
?_has_port@node_t@rfnoc@uhd@@AEBA_NAEBUres_source_info@23@@Z
; private: void __cdecl uhd::usrp_clock::octoclock_eeprom_t::_load(void)__ptr64 
?_load@octoclock_eeprom_t@usrp_clock@uhd@@AEAAXXZ
; protected: virtual void __cdecl uhd::rfnoc::mock_reg_iface_t::_peek_cb(unsigned int,class uhd::time_spec_t)__ptr64 
?_peek_cb@mock_reg_iface_t@rfnoc@uhd@@MEAAXIVtime_spec_t@3@@Z
; protected: virtual void __cdecl uhd::rfnoc::mock_reg_iface_t::_poke_cb(unsigned int,unsigned int,class uhd::time_spec_t,bool)__ptr64 
?_poke_cb@mock_reg_iface_t@rfnoc@uhd@@MEAAXIIVtime_spec_t@3@_N@Z
; private: class std::<char,struct std::<char>,class std::<char>> __cdecl uhd::niusrprio::niusrprio_session::_read_bitstream_checksum(void)__ptr64 
?_read_bitstream_checksum@niusrprio_session@niusrprio@uhd@@AEAA?AV?$basic_string@DU?$char_traits@D@std@@V?$allocator@D@2@@std@@XZ
; private: class std::<class uhd::utils::scope_exit,struct std::<class uhd::utils::scope_exit>> __cdecl uhd::rfnoc::node_t::_request_property_access(class uhd::rfnoc::property_base_t *__ptr64,enum uhd::rfnoc::property_base_t::access_t)const __ptr64 
?_request_property_access@node_t@rfnoc@uhd@@AEBA?AV?$unique_ptr@Vscope_exit@utils@uhd@@U?$default_delete@Vscope_exit@utils@uhd@@@std@@@std@@PEAVproperty_base_t@23@W4access_t@623@@Z
; private: void __cdecl uhd::rfnoc::noc_block_base::_set_tick_rate(double)__ptr64 
?_set_tick_rate@noc_block_base@rfnoc@uhd@@AEAAXN@Z
; private: void __cdecl uhd::usrp_clock::octoclock_eeprom_t::_store(void)const __ptr64 
?_store@octoclock_eeprom_t@usrp_clock@uhd@@AEBAXXZ
; protected: static class boost::shared_mutex uhd::niusrprio::niriok_proxy::_synchronization
?_synchronization@niriok_proxy@niusrprio@uhd@@1Vshared_mutex@boost@@A DATA
; private: int __cdecl uhd::niusrprio::niusrprio_session::_verify_signature(void)__ptr64 
?_verify_signature@niusrprio_session@niusrprio@uhd@@AEAAHXZ
; private: int __cdecl uhd::niusrprio::niusrprio_session::_write_bitstream_checksum(class std::<char,struct std::<char>,class std::<char>> const &__ptr64 )__ptr64 
?_write_bitstream_checksum@niusrprio_session@niusrprio@uhd@@AEAAHAEBV?$basic_string@DU?$char_traits@D@std@@V?$allocator@D@2@@std@@@Z
; public: void __cdecl uhd::soft_regmap_db_t::add(class uhd::soft_regmap_db_t &__ptr64 )__ptr64 
?add@soft_regmap_db_t@uhd@@QEAAXAEAV12@@Z
; public: void __cdecl uhd::soft_regmap_db_t::add(class uhd::soft_regmap_t &__ptr64 )__ptr64 
?add@soft_regmap_db_t@uhd@@QEAAXAEAVsoft_regmap_t@2@@Z
; public: virtual int __cdecl uhd::niusrprio::niriok_proxy_impl_v1::add_fifo_resource(struct uhd::niusrprio::nirio_fifo_info_t const &__ptr64 )__ptr64 
?add_fifo_resource@niriok_proxy_impl_v1@niusrprio@uhd@@UEAAHAEBUnirio_fifo_info_t@23@@Z
; public: virtual int __cdecl uhd::niusrprio::niriok_proxy_impl_v2::add_fifo_resource(struct uhd::niusrprio::nirio_fifo_info_t const &__ptr64 )__ptr64 
?add_fifo_resource@niriok_proxy_impl_v2@niusrprio@uhd@@UEAAHAEBUnirio_fifo_info_t@23@@Z
; public: void __cdecl uhd::rfnoc::chdr::mgmt_payload::add_hop(class uhd::rfnoc::chdr::mgmt_hop_t const &__ptr64 )__ptr64 
?add_hop@mgmt_payload@chdr@rfnoc@uhd@@QEAAXAEBVmgmt_hop_t@234@@Z
; void __cdecl uhd::log::add_logger(class std::<char,struct std::<char>,class std::<char>> const &__ptr64 ,class std::<void __cdecl(struct uhd::log::logging_info const &__ptr64 )>)
?add_logger@log@uhd@@YAXAEBV?$basic_string@DU?$char_traits@D@std@@V?$allocator@D@2@@std@@V?$function@$$A6AXAEBUlogging_info@log@uhd@@@Z@4@@Z
; public: void __cdecl uhd::rfnoc::chdr::mgmt_hop_t::add_op(class uhd::rfnoc::chdr::mgmt_op_t const &__ptr64 )__ptr64 
?add_op@mgmt_hop_t@chdr@rfnoc@uhd@@QEAAXAEBVmgmt_op_t@234@@Z
; protected: void __cdecl uhd::rfnoc::node_t::add_property_resolver(,class std::<class uhd::rfnoc::property_base_t *__ptr64,class std::<class uhd::rfnoc::property_base_t *__ptr64>> *__ptr64 const,,,class std::<void __cdecl(void)> *__ptr64 const)__ptr64 
?add_property_resolver@node_t@rfnoc@uhd@@IEAAX$$QEAV?$vector@PEAVproperty_base_t@rfnoc@uhd@@V?$allocator@PEAVproperty_base_t@rfnoc@uhd@@@std@@@std@@0$$QEAV?$function@$$A6AXXZ@5@@Z
; protected: void __cdecl uhd::soft_regmap_t::add_to_map(class uhd::soft_register_base &__ptr64 ,class std::<char,struct std::<char>,class std::<char>> const &__ptr64 ,enum uhd::soft_regmap_t::visibility_t)__ptr64 
?add_to_map@soft_regmap_t@uhd@@IEAAXAEAVsoft_register_base@2@AEBV?$basic_string@DU?$char_traits@D@std@@V?$allocator@D@2@@std@@W4visibility_t@12@@Z
; public: struct uhd::meta_range_t __cdecl uhd::meta_range_t::as_monotonic(void)const __ptr64 
?as_monotonic@meta_range_t@uhd@@QEBA?AU12@XZ
; public: void __cdecl std::<struct uhd::usrp::subdev_spec_pair_t,class std::<struct uhd::usrp::subdev_spec_pair_t>>::assign(class std::<struct uhd::usrp::subdev_spec_pair_t>)__ptr64 
?assign@?$vector@Usubdev_spec_pair_t@usrp@uhd@@V?$allocator@Usubdev_spec_pair_t@usrp@uhd@@@std@@@std@@QEAAXV?$initializer_list@Usubdev_spec_pair_t@usrp@uhd@@@2@@Z
; public: void __cdecl std::<struct uhd::usrp::subdev_spec_pair_t,class std::<struct uhd::usrp::subdev_spec_pair_t>>::assign(unsigned __int64,struct uhd::usrp::subdev_spec_pair_t const &__ptr64 )__ptr64 
?assign@?$vector@Usubdev_spec_pair_t@usrp@uhd@@V?$allocator@Usubdev_spec_pair_t@usrp@uhd@@@std@@@std@@QEAAX_KAEBUsubdev_spec_pair_t@usrp@uhd@@@Z
; public: void __cdecl std::<class uhd::range_t,class std::<class uhd::range_t>>::assign(class std::<class uhd::range_t>)__ptr64 
?assign@?$vector@Vrange_t@uhd@@V?$allocator@Vrange_t@uhd@@@std@@@std@@QEAAXV?$initializer_list@Vrange_t@uhd@@@2@@Z
; public: void __cdecl std::<class uhd::range_t,class std::<class uhd::range_t>>::assign(unsigned __int64,class uhd::range_t const &__ptr64 )__ptr64 
?assign@?$vector@Vrange_t@uhd@@V?$allocator@Vrange_t@uhd@@@std@@@std@@QEAAX_KAEBVrange_t@uhd@@@Z
; public: struct uhd::usrp::subdev_spec_pair_t &__ptr64 __cdecl std::<struct uhd::usrp::subdev_spec_pair_t,class std::<struct uhd::usrp::subdev_spec_pair_t>>::at(unsigned __int64)__ptr64 
?at@?$vector@Usubdev_spec_pair_t@usrp@uhd@@V?$allocator@Usubdev_spec_pair_t@usrp@uhd@@@std@@@std@@QEAAAEAUsubdev_spec_pair_t@usrp@uhd@@_K@Z
; public: struct uhd::usrp::subdev_spec_pair_t const &__ptr64 __cdecl std::<struct uhd::usrp::subdev_spec_pair_t,class std::<struct uhd::usrp::subdev_spec_pair_t>>::at(unsigned __int64)const __ptr64 
?at@?$vector@Usubdev_spec_pair_t@usrp@uhd@@V?$allocator@Usubdev_spec_pair_t@usrp@uhd@@@std@@@std@@QEBAAEBUsubdev_spec_pair_t@usrp@uhd@@_K@Z
; public: class uhd::range_t &__ptr64 __cdecl std::<class uhd::range_t,class std::<class uhd::range_t>>::at(unsigned __int64)__ptr64 
?at@?$vector@Vrange_t@uhd@@V?$allocator@Vrange_t@uhd@@@std@@@std@@QEAAAEAVrange_t@uhd@@_K@Z
; public: class uhd::range_t const &__ptr64 __cdecl std::<class uhd::range_t,class std::<class uhd::range_t>>::at(unsigned __int64)const __ptr64 
?at@?$vector@Vrange_t@uhd@@V?$allocator@Vrange_t@uhd@@@std@@@std@@QEBAAEBVrange_t@uhd@@_K@Z
; public: struct uhd::usrp::subdev_spec_pair_t &__ptr64 __cdecl std::<struct uhd::usrp::subdev_spec_pair_t,class std::<struct uhd::usrp::subdev_spec_pair_t>>::back(void)__ptr64 
?back@?$vector@Usubdev_spec_pair_t@usrp@uhd@@V?$allocator@Usubdev_spec_pair_t@usrp@uhd@@@std@@@std@@QEAAAEAUsubdev_spec_pair_t@usrp@uhd@@XZ
; public: struct uhd::usrp::subdev_spec_pair_t const &__ptr64 __cdecl std::<struct uhd::usrp::subdev_spec_pair_t,class std::<struct uhd::usrp::subdev_spec_pair_t>>::back(void)const __ptr64 
?back@?$vector@Usubdev_spec_pair_t@usrp@uhd@@V?$allocator@Usubdev_spec_pair_t@usrp@uhd@@@std@@@std@@QEBAAEBUsubdev_spec_pair_t@usrp@uhd@@XZ
; public: class uhd::range_t &__ptr64 __cdecl std::<class uhd::range_t,class std::<class uhd::range_t>>::back(void)__ptr64 
?back@?$vector@Vrange_t@uhd@@V?$allocator@Vrange_t@uhd@@@std@@@std@@QEAAAEAVrange_t@uhd@@XZ
; public: class uhd::range_t const &__ptr64 __cdecl std::<class uhd::range_t,class std::<class uhd::range_t>>::back(void)const __ptr64 
?back@?$vector@Vrange_t@uhd@@V?$allocator@Vrange_t@uhd@@@std@@@std@@QEBAAEBVrange_t@uhd@@XZ
; public: class std::<class std::<struct std::<struct uhd::usrp::subdev_spec_pair_t>>> __cdecl std::<struct uhd::usrp::subdev_spec_pair_t,class std::<struct uhd::usrp::subdev_spec_pair_t>>::begin(void)__ptr64 
?begin@?$vector@Usubdev_spec_pair_t@usrp@uhd@@V?$allocator@Usubdev_spec_pair_t@usrp@uhd@@@std@@@std@@QEAA?AV?$_Vector_iterator@V?$_Vector_val@U?$_Simple_types@Usubdev_spec_pair_t@usrp@uhd@@@std@@@std@@@2@XZ
; public: class std::<class std::<struct std::<struct uhd::usrp::subdev_spec_pair_t>>> __cdecl std::<struct uhd::usrp::subdev_spec_pair_t,class std::<struct uhd::usrp::subdev_spec_pair_t>>::begin(void)const __ptr64 
?begin@?$vector@Usubdev_spec_pair_t@usrp@uhd@@V?$allocator@Usubdev_spec_pair_t@usrp@uhd@@@std@@@std@@QEBA?AV?$_Vector_const_iterator@V?$_Vector_val@U?$_Simple_types@Usubdev_spec_pair_t@usrp@uhd@@@std@@@std@@@2@XZ
; public: class std::<class std::<struct std::<class uhd::range_t>>> __cdecl std::<class uhd::range_t,class std::<class uhd::range_t>>::begin(void)__ptr64 
?begin@?$vector@Vrange_t@uhd@@V?$allocator@Vrange_t@uhd@@@std@@@std@@QEAA?AV?$_Vector_iterator@V?$_Vector_val@U?$_Simple_types@Vrange_t@uhd@@@std@@@std@@@2@XZ
; public: class std::<class std::<struct std::<class uhd::range_t>>> __cdecl std::<class uhd::range_t,class std::<class uhd::range_t>>::begin(void)const __ptr64 
?begin@?$vector@Vrange_t@uhd@@V?$allocator@Vrange_t@uhd@@@std@@@std@@QEBA?AV?$_Vector_const_iterator@V?$_Vector_val@U?$_Simple_types@Vrange_t@uhd@@@std@@@std@@@2@XZ
; public: virtual class std::<unsigned int,class std::<unsigned int>> __cdecl uhd::rfnoc::mock_reg_iface_t::block_peek32(unsigned int,unsigned __int64,class uhd::time_spec_t)__ptr64 
?block_peek32@mock_reg_iface_t@rfnoc@uhd@@UEAA?AV?$vector@IV?$allocator@I@std@@@std@@I_KVtime_spec_t@3@@Z
; public: virtual void __cdecl uhd::rfnoc::mock_reg_iface_t::block_poke32(unsigned int,class std::<unsigned int,class std::<unsigned int>>,class uhd::time_spec_t,bool)__ptr64 
?block_poke32@mock_reg_iface_t@rfnoc@uhd@@UEAAXIV?$vector@IV?$allocator@I@std@@@std@@Vtime_spec_t@3@_N@Z
; class std::<char,struct std::<char>,class std::<char>> const __cdecl uhd::build_info::boost_version(void)
?boost_version@build_info@uhd@@YA?BV?$basic_string@DU?$char_traits@D@std@@V?$allocator@D@2@@std@@XZ
; public: struct uhd::fs_path __cdecl uhd::fs_path::branch_path(void)const __ptr64 
?branch_path@fs_path@uhd@@QEBA?AU12@XZ
; public: static class std::<unsigned char,class std::<unsigned char>> __cdecl uhd::msg_task::buff_to_vector(unsigned char *__ptr64,unsigned __int64)
?buff_to_vector@msg_task@uhd@@SA?AV?$vector@EV?$allocator@E@std@@@std@@PEAE_K@Z
; class std::<char,struct std::<char>,class std::<char>> const __cdecl uhd::build_info::build_date(void)
?build_date@build_info@uhd@@YA?BV?$basic_string@DU?$char_traits@D@std@@V?$allocator@D@2@@std@@XZ
; class std::<char,struct std::<char>,class std::<char>> __cdecl uhd::bytes_to_string(class std::<unsigned char,class std::<unsigned char>> const &__ptr64 )
?bytes_to_string@uhd@@YA?AV?$basic_string@DU?$char_traits@D@std@@V?$allocator@D@2@@std@@AEBV?$vector@EV?$allocator@E@std@@@3@@Z
; class std::<char,struct std::<char>,class std::<char>> const __cdecl uhd::build_info::c_compiler(void)
?c_compiler@build_info@uhd@@YA?BV?$basic_string@DU?$char_traits@D@std@@V?$allocator@D@2@@std@@XZ
; class std::<char,struct std::<char>,class std::<char>> const __cdecl uhd::build_info::c_flags(void)
?c_flags@build_info@uhd@@YA?BV?$basic_string@DU?$char_traits@D@std@@V?$allocator@D@2@@std@@XZ
; public: unsigned __int64 __cdecl std::<struct uhd::usrp::subdev_spec_pair_t,class std::<struct uhd::usrp::subdev_spec_pair_t>>::capacity(void)const __ptr64 
?capacity@?$vector@Usubdev_spec_pair_t@usrp@uhd@@V?$allocator@Usubdev_spec_pair_t@usrp@uhd@@@std@@@std@@QEBA_KXZ
; public: unsigned __int64 __cdecl std::<class uhd::range_t,class std::<class uhd::range_t>>::capacity(void)const __ptr64 
?capacity@?$vector@Vrange_t@uhd@@V?$allocator@Vrange_t@uhd@@@std@@@std@@QEBA_KXZ
; public: class std::<class std::<struct std::<struct uhd::usrp::subdev_spec_pair_t>>> __cdecl std::<struct uhd::usrp::subdev_spec_pair_t,class std::<struct uhd::usrp::subdev_spec_pair_t>>::cbegin(void)const __ptr64 
?cbegin@?$vector@Usubdev_spec_pair_t@usrp@uhd@@V?$allocator@Usubdev_spec_pair_t@usrp@uhd@@@std@@@std@@QEBA?AV?$_Vector_const_iterator@V?$_Vector_val@U?$_Simple_types@Usubdev_spec_pair_t@usrp@uhd@@@std@@@std@@@2@XZ
; public: class std::<class std::<struct std::<class uhd::range_t>>> __cdecl std::<class uhd::range_t,class std::<class uhd::range_t>>::cbegin(void)const __ptr64 
?cbegin@?$vector@Vrange_t@uhd@@V?$allocator@Vrange_t@uhd@@@std@@@std@@QEBA?AV?$_Vector_const_iterator@V?$_Vector_val@U?$_Simple_types@Vrange_t@uhd@@@std@@@std@@@2@XZ
; public: class std::<class std::<struct std::<struct uhd::usrp::subdev_spec_pair_t>>> __cdecl std::<struct uhd::usrp::subdev_spec_pair_t,class std::<struct uhd::usrp::subdev_spec_pair_t>>::cend(void)const __ptr64 
?cend@?$vector@Usubdev_spec_pair_t@usrp@uhd@@V?$allocator@Usubdev_spec_pair_t@usrp@uhd@@@std@@@std@@QEBA?AV?$_Vector_const_iterator@V?$_Vector_val@U?$_Simple_types@Usubdev_spec_pair_t@usrp@uhd@@@std@@@std@@@2@XZ
; public: class std::<class std::<struct std::<class uhd::range_t>>> __cdecl std::<class uhd::range_t,class std::<class uhd::range_t>>::cend(void)const __ptr64 
?cend@?$vector@Vrange_t@uhd@@V?$allocator@Vrange_t@uhd@@@std@@@std@@QEBA?AV?$_Vector_const_iterator@V?$_Vector_val@U?$_Simple_types@Vrange_t@uhd@@@std@@@std@@@2@XZ
; protected: virtual bool __cdecl uhd::rfnoc::node_t::check_topology(class std::<unsigned __int64,class std::<unsigned __int64>> const &__ptr64 ,class std::<unsigned __int64,class std::<unsigned __int64>> const &__ptr64 )__ptr64 
?check_topology@node_t@rfnoc@uhd@@MEAA_NAEBV?$vector@_KV?$allocator@_K@std@@@std@@0@Z
; private: void __cdecl uhd::rfnoc::node_t::clean_props(void)__ptr64 
?clean_props@node_t@rfnoc@uhd@@AEAAXXZ
; public: void __cdecl std::<struct uhd::usrp::subdev_spec_pair_t,class std::<struct uhd::usrp::subdev_spec_pair_t>>::clear(void)__ptr64 
?clear@?$vector@Usubdev_spec_pair_t@usrp@uhd@@V?$allocator@Usubdev_spec_pair_t@usrp@uhd@@@std@@@std@@QEAAXXZ
; public: void __cdecl std::<class uhd::range_t,class std::<class uhd::range_t>>::clear(void)__ptr64 
?clear@?$vector@Vrange_t@uhd@@V?$allocator@Vrange_t@uhd@@@std@@@std@@QEAAXXZ
; public: virtual void __cdecl uhd::rfnoc::node_t::clear_command_time(unsigned __int64)__ptr64 
?clear_command_time@node_t@rfnoc@uhd@@UEAAX_K@Z
; private: void __cdecl uhd::rfnoc::node_t::clear_graph_mutex_callback(void)__ptr64 
?clear_graph_mutex_callback@node_t@rfnoc@uhd@@AEAAXXZ
; private: void __cdecl uhd::rfnoc::node_t::clear_resolve_all_callback(void)__ptr64 
?clear_resolve_all_callback@node_t@rfnoc@uhd@@AEAAXXZ
; public: double __cdecl uhd::meta_range_t::clip(double,bool)const __ptr64 
?clip@meta_range_t@uhd@@QEBANN_N@Z
; public: virtual class std::<class uhd::rfnoc::property_base_t,struct std::<class uhd::rfnoc::property_base_t>> __cdecl uhd::rfnoc::property_base_t::clone(struct uhd::rfnoc::res_source_info)__ptr64 
?clone@property_base_t@rfnoc@uhd@@UEAA?AV?$unique_ptr@Vproperty_base_t@rfnoc@uhd@@U?$default_delete@Vproperty_base_t@rfnoc@uhd@@@std@@@std@@Ures_source_info@23@@Z
; public: virtual void __cdecl uhd::niusrprio::niriok_proxy_impl_v1::close(void)__ptr64 
?close@niriok_proxy_impl_v1@niusrprio@uhd@@UEAAXXZ
; public: virtual void __cdecl uhd::niusrprio::niriok_proxy_impl_v2::close(void)__ptr64 
?close@niriok_proxy_impl_v2@niusrprio@uhd@@UEAAXXZ
; public: void __cdecl uhd::niusrprio::niusrprio_session::close(bool)__ptr64 
?close@niusrprio_session@niusrprio@uhd@@QEAAX_N@Z
; public: virtual unsigned int __cdecl uhd::access_error::code(void)const __ptr64 
?code@access_error@uhd@@UEBAIXZ
; public: virtual unsigned int __cdecl uhd::assertion_error::code(void)const __ptr64 
?code@assertion_error@uhd@@UEBAIXZ
; public: virtual unsigned int __cdecl uhd::environment_error::code(void)const __ptr64 
?code@environment_error@uhd@@UEBAIXZ
; public: virtual unsigned int __cdecl uhd::index_error::code(void)const __ptr64 
?code@index_error@uhd@@UEBAIXZ
; public: virtual unsigned int __cdecl uhd::io_error::code(void)const __ptr64 
?code@io_error@uhd@@UEBAIXZ
; public: virtual unsigned int __cdecl uhd::key_error::code(void)const __ptr64 
?code@key_error@uhd@@UEBAIXZ
; public: virtual unsigned int __cdecl uhd::lookup_error::code(void)const __ptr64 
?code@lookup_error@uhd@@UEBAIXZ
; public: virtual unsigned int __cdecl uhd::narrowing_error::code(void)const __ptr64 
?code@narrowing_error@uhd@@UEBAIXZ
; public: virtual unsigned int __cdecl uhd::not_implemented_error::code(void)const __ptr64 
?code@not_implemented_error@uhd@@UEBAIXZ
; public: virtual unsigned int __cdecl uhd::op_failed::code(void)const __ptr64 
?code@op_failed@uhd@@UEBAIXZ
; public: virtual unsigned int __cdecl uhd::op_seqerr::code(void)const __ptr64 
?code@op_seqerr@uhd@@UEBAIXZ
; public: virtual unsigned int __cdecl uhd::op_timeout::code(void)const __ptr64 
?code@op_timeout@uhd@@UEBAIXZ
; public: virtual unsigned int __cdecl uhd::op_timerr::code(void)const __ptr64 
?code@op_timerr@uhd@@UEBAIXZ
; public: virtual unsigned int __cdecl uhd::os_error::code(void)const __ptr64 
?code@os_error@uhd@@UEBAIXZ
; public: virtual unsigned int __cdecl uhd::resolve_error::code(void)const __ptr64 
?code@resolve_error@uhd@@UEBAIXZ
; public: virtual unsigned int __cdecl uhd::rfnoc_error::code(void)const __ptr64 
?code@rfnoc_error@uhd@@UEBAIXZ
; public: virtual unsigned int __cdecl uhd::routing_error::code(void)const __ptr64 
?code@routing_error@uhd@@UEBAIXZ
; public: virtual unsigned int __cdecl uhd::runtime_error::code(void)const __ptr64 
?code@runtime_error@uhd@@UEBAIXZ
; public: virtual unsigned int __cdecl uhd::syntax_error::code(void)const __ptr64 
?code@syntax_error@uhd@@UEBAIXZ
; public: virtual unsigned int __cdecl uhd::system_error::code(void)const __ptr64 
?code@system_error@uhd@@UEBAIXZ
; public: virtual unsigned int __cdecl uhd::type_error::code(void)const __ptr64 
?code@type_error@uhd@@UEBAIXZ
; public: virtual unsigned int __cdecl uhd::usb_error::code(void)const __ptr64 
?code@usb_error@uhd@@UEBAIXZ
; public: virtual unsigned int __cdecl uhd::value_error::code(void)const __ptr64 
?code@value_error@uhd@@UEBAIXZ
; class uhd::device_addr_t __cdecl uhd::combine_device_addrs(class std::<class uhd::device_addr_t,class std::<class uhd::device_addr_t>> const &__ptr64 )
?combine_device_addrs@uhd@@YA?AVdevice_addr_t@1@AEBV?$vector@Vdevice_addr_t@uhd@@V?$allocator@Vdevice_addr_t@uhd@@@std@@@std@@@Z
; public: void __cdecl uhd::transport::managed_buffer::commit(unsigned __int64)__ptr64 
?commit@managed_buffer@transport@uhd@@QEAAX_K@Z
; public: void __cdecl uhd::usrp_clock::octoclock_eeprom_t::commit(void)const __ptr64 
?commit@octoclock_eeprom_t@usrp_clock@uhd@@QEBAXXZ
; public: virtual int __cdecl uhd::niusrprio::niriok_proxy_impl_v1::configure_fifo(unsigned int,unsigned int,unsigned char,unsigned int &__ptr64 ,unsigned int &__ptr64 )__ptr64 
?configure_fifo@niriok_proxy_impl_v1@niusrprio@uhd@@UEAAHIIEAEAI0@Z
; public: virtual int __cdecl uhd::niusrprio::niriok_proxy_impl_v2::configure_fifo(unsigned int,unsigned int,unsigned char,unsigned int &__ptr64 ,unsigned int &__ptr64 )__ptr64 
?configure_fifo@niriok_proxy_impl_v2@niusrprio@uhd@@UEAAHIIEAEAI0@Z
; class std::<struct uhd::rfnoc::graph_edge_t,class std::<struct uhd::rfnoc::graph_edge_t>> __cdecl uhd::rfnoc::connect_through_blocks(class std::<class uhd::rfnoc::rfnoc_graph>,class uhd::rfnoc::block_id_t,unsigned __int64,class uhd::rfnoc::block_id_t,unsigned __int64,bool)
?connect_through_blocks@rfnoc@uhd@@YA?AV?$vector@Ugraph_edge_t@rfnoc@uhd@@V?$allocator@Ugraph_edge_t@rfnoc@uhd@@@std@@@std@@V?$shared_ptr@Vrfnoc_graph@rfnoc@uhd@@@4@Vblock_id_t@12@_K12_N@Z
; public: class std::<class std::<class std::<struct std::<struct uhd::usrp::subdev_spec_pair_t>>>> __cdecl std::<struct uhd::usrp::subdev_spec_pair_t,class std::<struct uhd::usrp::subdev_spec_pair_t>>::crbegin(void)const __ptr64 
?crbegin@?$vector@Usubdev_spec_pair_t@usrp@uhd@@V?$allocator@Usubdev_spec_pair_t@usrp@uhd@@@std@@@std@@QEBA?AV?$reverse_iterator@V?$_Vector_const_iterator@V?$_Vector_val@U?$_Simple_types@Usubdev_spec_pair_t@usrp@uhd@@@std@@@std@@@std@@@2@XZ
; public: class std::<class std::<class std::<struct std::<class uhd::range_t>>>> __cdecl std::<class uhd::range_t,class std::<class uhd::range_t>>::crbegin(void)const __ptr64 
?crbegin@?$vector@Vrange_t@uhd@@V?$allocator@Vrange_t@uhd@@@std@@@std@@QEBA?AV?$reverse_iterator@V?$_Vector_const_iterator@V?$_Vector_val@U?$_Simple_types@Vrange_t@uhd@@@std@@@std@@@std@@@2@XZ
; public: static class std::<class uhd::experts::expert_container> __cdecl uhd::experts::expert_factory::create_container(class std::<char,struct std::<char>,class std::<char>> const &__ptr64 )
?create_container@expert_factory@experts@uhd@@SA?AV?$shared_ptr@Vexpert_container@experts@uhd@@@std@@AEBV?$basic_string@DU?$char_traits@D@std@@V?$allocator@D@2@@5@@Z
; public: static class std::<class uhd::niusrprio::niriok_proxy> __cdecl uhd::niusrprio::niusrprio_session::create_kernel_proxy(class std::<char,struct std::<char>,class std::<char>> const &__ptr64 ,class std::<char,struct std::<char>,class std::<char>> const &__ptr64 )
?create_kernel_proxy@niusrprio_session@niusrprio@uhd@@SA?AV?$shared_ptr@Vniriok_proxy@niusrprio@uhd@@@std@@AEBV?$basic_string@DU?$char_traits@D@std@@V?$allocator@D@2@@5@0@Z
; public: class std::<class std::<class std::<struct std::<struct uhd::usrp::subdev_spec_pair_t>>>> __cdecl std::<struct uhd::usrp::subdev_spec_pair_t,class std::<struct uhd::usrp::subdev_spec_pair_t>>::crend(void)const __ptr64 
?crend@?$vector@Usubdev_spec_pair_t@usrp@uhd@@V?$allocator@Usubdev_spec_pair_t@usrp@uhd@@@std@@@std@@QEBA?AV?$reverse_iterator@V?$_Vector_const_iterator@V?$_Vector_val@U?$_Simple_types@Usubdev_spec_pair_t@usrp@uhd@@@std@@@std@@@std@@@2@XZ
; public: class std::<class std::<class std::<struct std::<class uhd::range_t>>>> __cdecl std::<class uhd::range_t,class std::<class uhd::range_t>>::crend(void)const __ptr64 
?crend@?$vector@Vrange_t@uhd@@V?$allocator@Vrange_t@uhd@@@std@@@std@@QEBA?AV?$reverse_iterator@V?$_Vector_const_iterator@V?$_Vector_val@U?$_Simple_types@Vrange_t@uhd@@@std@@@std@@@std@@@2@XZ
; class std::<char,struct std::<char>,class std::<char>> const __cdecl uhd::build_info::cxx_compiler(void)
?cxx_compiler@build_info@uhd@@YA?BV?$basic_string@DU?$char_traits@D@std@@V?$allocator@D@2@@std@@XZ
; class std::<char,struct std::<char>,class std::<char>> const __cdecl uhd::build_info::cxx_flags(void)
?cxx_flags@build_info@uhd@@YA?BV?$basic_string@DU?$char_traits@D@std@@V?$allocator@D@2@@std@@XZ
; public: struct uhd::usrp::subdev_spec_pair_t *__ptr64 __cdecl std::<struct uhd::usrp::subdev_spec_pair_t,class std::<struct uhd::usrp::subdev_spec_pair_t>>::data(void)__ptr64 
?data@?$vector@Usubdev_spec_pair_t@usrp@uhd@@V?$allocator@Usubdev_spec_pair_t@usrp@uhd@@@std@@@std@@QEAAPEAUsubdev_spec_pair_t@usrp@uhd@@XZ
; public: struct uhd::usrp::subdev_spec_pair_t const *__ptr64 __cdecl std::<struct uhd::usrp::subdev_spec_pair_t,class std::<struct uhd::usrp::subdev_spec_pair_t>>::data(void)const __ptr64 
?data@?$vector@Usubdev_spec_pair_t@usrp@uhd@@V?$allocator@Usubdev_spec_pair_t@usrp@uhd@@@std@@@std@@QEBAPEBUsubdev_spec_pair_t@usrp@uhd@@XZ
; public: class uhd::range_t *__ptr64 __cdecl std::<class uhd::range_t,class std::<class uhd::range_t>>::data(void)__ptr64 
?data@?$vector@Vrange_t@uhd@@V?$allocator@Vrange_t@uhd@@@std@@@std@@QEAAPEAVrange_t@uhd@@XZ
; public: class uhd::range_t const *__ptr64 __cdecl std::<class uhd::range_t,class std::<class uhd::range_t>>::data(void)const __ptr64 
?data@?$vector@Vrange_t@uhd@@V?$allocator@Vrange_t@uhd@@@std@@@std@@QEBAPEBVrange_t@uhd@@XZ
; public: virtual void __cdecl uhd::usrp::dboard_iface::define_custom_register_space(unsigned int,unsigned int,class std::<void __cdecl(unsigned int,unsigned int)>,class std::<unsigned int __cdecl(unsigned int)>)__ptr64 
?define_custom_register_space@dboard_iface@usrp@uhd@@UEAAXIIV?$function@$$A6AXII@Z@std@@V?$function@$$A6AII@Z@5@@Z
; public: virtual void __cdecl uhd::rfnoc::mock_reg_iface_t::define_custom_register_space(unsigned int,unsigned int,class std::<void __cdecl(unsigned int,unsigned int)>,class std::<unsigned int __cdecl(unsigned int)>)__ptr64 
?define_custom_register_space@mock_reg_iface_t@rfnoc@uhd@@UEAAXIIV?$function@$$A6AXII@Z@std@@V?$function@$$A6AII@Z@5@@Z
; protected: virtual void __cdecl uhd::rfnoc::noc_block_base::deinit(void)__ptr64 
?deinit@noc_block_base@rfnoc@uhd@@MEAAXXZ
; public: void __cdecl uhd::rfnoc::chdr::ctrl_payload::deserialize(unsigned __int64 const *__ptr64,unsigned __int64,class std::<unsigned __int64 __cdecl(unsigned __int64)> const &__ptr64 )__ptr64 
?deserialize@ctrl_payload@chdr@rfnoc@uhd@@QEAAXPEB_K_KAEBV?$function@$$A6A_K_K@Z@std@@@Z
; public: void __cdecl uhd::rfnoc::chdr::mgmt_hop_t::deserialize(class std::<unsigned __int64,class std::<unsigned __int64>> &__ptr64 ,class std::<unsigned __int64 __cdecl(unsigned __int64)> const &__ptr64 ,unsigned __int64)__ptr64 
?deserialize@mgmt_hop_t@chdr@rfnoc@uhd@@QEAAXAEAV?$list@_KV?$allocator@_K@std@@@std@@AEBV?$function@$$A6A_K_K@Z@6@_K@Z
; public: void __cdecl uhd::rfnoc::chdr::mgmt_payload::deserialize(unsigned __int64 const *__ptr64,unsigned __int64,class std::<unsigned __int64 __cdecl(unsigned __int64)> const &__ptr64 )__ptr64 
?deserialize@mgmt_payload@chdr@rfnoc@uhd@@QEAAXPEB_K_KAEBV?$function@$$A6A_K_K@Z@std@@@Z
; public: void __cdecl uhd::rfnoc::chdr::strc_payload::deserialize(unsigned __int64 const *__ptr64,unsigned __int64,class std::<unsigned __int64 __cdecl(unsigned __int64)> const &__ptr64 )__ptr64 
?deserialize@strc_payload@chdr@rfnoc@uhd@@QEAAXPEB_K_KAEBV?$function@$$A6A_K_K@Z@std@@@Z
; public: void __cdecl uhd::rfnoc::chdr::strs_payload::deserialize(unsigned __int64 const *__ptr64,unsigned __int64,class std::<unsigned __int64 __cdecl(unsigned __int64)> const &__ptr64 )__ptr64 
?deserialize@strs_payload@chdr@rfnoc@uhd@@QEAAXPEB_K_KAEBV?$function@$$A6A_K_K@Z@std@@@Z
; private: static class uhd::utils::chdr::chdr_packet __cdecl uhd::utils::chdr::chdr_packet::deserialize_ptr(enum uhd::rfnoc::chdr_w_t,enum uhd::endianness_t,void const *__ptr64,void const *__ptr64)
?deserialize_ptr@chdr_packet@chdr@utils@uhd@@CA?AV1234@W4chdr_w_t@rfnoc@4@W4endianness_t@4@PEBX2@Z
; private: virtual bool __cdecl boost::archive::<wchar_t>::do_always_noconv(void)const __ptr64 
?do_always_noconv@?$codecvt_null@_W@archive@boost@@EEBA_NXZ
; private: virtual int __cdecl boost::archive::<wchar_t>::do_encoding(void)const __ptr64 
?do_encoding@?$codecvt_null@_W@archive@boost@@EEBAHXZ
; private: virtual int __cdecl boost::archive::<wchar_t>::do_in(struct _Mbstatet &__ptr64 ,char const *__ptr64,char const *__ptr64,char const *__ptr64 &__ptr64 ,wchar_t *__ptr64,wchar_t *__ptr64,wchar_t *__ptr64 &__ptr64 )const __ptr64 
?do_in@?$codecvt_null@_W@archive@boost@@EEBAHAEAU_Mbstatet@@PEBD1AEAPEBDPEA_W3AEAPEA_W@Z
; private: virtual int __cdecl boost::archive::<wchar_t>::do_max_length(void)const __ptr64 
?do_max_length@?$codecvt_null@_W@archive@boost@@EEBAHXZ
; private: virtual int __cdecl boost::archive::<wchar_t>::do_out(struct _Mbstatet &__ptr64 ,wchar_t const *__ptr64,wchar_t const *__ptr64,wchar_t const *__ptr64 &__ptr64 ,char *__ptr64,char *__ptr64,char *__ptr64 &__ptr64 )const __ptr64 
?do_out@?$codecvt_null@_W@archive@boost@@EEBAHAEAU_Mbstatet@@PEB_W1AEAPEB_WPEAD3AEAPEAD@Z
; public: int __cdecl uhd::niusrprio::niusrprio_session::download_bitstream_to_flash(class std::<char,struct std::<char>,class std::<char>> const &__ptr64 )__ptr64 
?download_bitstream_to_flash@niusrprio_session@niusrprio@uhd@@QEAAHAEBV?$basic_string@DU?$char_traits@D@std@@V?$allocator@D@2@@std@@@Z
; class std::<char,struct std::<char>,class std::<char>> const __cdecl uhd::build_info::dpdk_version(void)
?dpdk_version@build_info@uhd@@YA?BV?$basic_string@DU?$char_traits@D@std@@V?$allocator@D@2@@std@@XZ
; public: virtual struct uhd::access_error *__ptr64 __cdecl uhd::access_error::dynamic_clone(void)const __ptr64 
?dynamic_clone@access_error@uhd@@UEBAPEAU12@XZ
; public: virtual struct uhd::assertion_error *__ptr64 __cdecl uhd::assertion_error::dynamic_clone(void)const __ptr64 
?dynamic_clone@assertion_error@uhd@@UEBAPEAU12@XZ
; public: virtual struct uhd::environment_error *__ptr64 __cdecl uhd::environment_error::dynamic_clone(void)const __ptr64 
?dynamic_clone@environment_error@uhd@@UEBAPEAU12@XZ
; public: virtual struct uhd::index_error *__ptr64 __cdecl uhd::index_error::dynamic_clone(void)const __ptr64 
?dynamic_clone@index_error@uhd@@UEBAPEAU12@XZ
; public: virtual struct uhd::io_error *__ptr64 __cdecl uhd::io_error::dynamic_clone(void)const __ptr64 
?dynamic_clone@io_error@uhd@@UEBAPEAU12@XZ
; public: virtual struct uhd::key_error *__ptr64 __cdecl uhd::key_error::dynamic_clone(void)const __ptr64 
?dynamic_clone@key_error@uhd@@UEBAPEAU12@XZ
; public: virtual struct uhd::lookup_error *__ptr64 __cdecl uhd::lookup_error::dynamic_clone(void)const __ptr64 
?dynamic_clone@lookup_error@uhd@@UEBAPEAU12@XZ
; public: virtual struct uhd::narrowing_error *__ptr64 __cdecl uhd::narrowing_error::dynamic_clone(void)const __ptr64 
?dynamic_clone@narrowing_error@uhd@@UEBAPEAU12@XZ
; public: virtual struct uhd::not_implemented_error *__ptr64 __cdecl uhd::not_implemented_error::dynamic_clone(void)const __ptr64 
?dynamic_clone@not_implemented_error@uhd@@UEBAPEAU12@XZ
; public: virtual struct uhd::op_failed *__ptr64 __cdecl uhd::op_failed::dynamic_clone(void)const __ptr64 
?dynamic_clone@op_failed@uhd@@UEBAPEAU12@XZ
; public: virtual struct uhd::op_seqerr *__ptr64 __cdecl uhd::op_seqerr::dynamic_clone(void)const __ptr64 
?dynamic_clone@op_seqerr@uhd@@UEBAPEAU12@XZ
; public: virtual struct uhd::op_timeout *__ptr64 __cdecl uhd::op_timeout::dynamic_clone(void)const __ptr64 
?dynamic_clone@op_timeout@uhd@@UEBAPEAU12@XZ
; public: virtual struct uhd::op_timerr *__ptr64 __cdecl uhd::op_timerr::dynamic_clone(void)const __ptr64 
?dynamic_clone@op_timerr@uhd@@UEBAPEAU12@XZ
; public: virtual struct uhd::os_error *__ptr64 __cdecl uhd::os_error::dynamic_clone(void)const __ptr64 
?dynamic_clone@os_error@uhd@@UEBAPEAU12@XZ
; public: virtual struct uhd::resolve_error *__ptr64 __cdecl uhd::resolve_error::dynamic_clone(void)const __ptr64 
?dynamic_clone@resolve_error@uhd@@UEBAPEAU12@XZ
; public: virtual struct uhd::rfnoc_error *__ptr64 __cdecl uhd::rfnoc_error::dynamic_clone(void)const __ptr64 
?dynamic_clone@rfnoc_error@uhd@@UEBAPEAU12@XZ
; public: virtual struct uhd::routing_error *__ptr64 __cdecl uhd::routing_error::dynamic_clone(void)const __ptr64 
?dynamic_clone@routing_error@uhd@@UEBAPEAU12@XZ
; public: virtual struct uhd::runtime_error *__ptr64 __cdecl uhd::runtime_error::dynamic_clone(void)const __ptr64 
?dynamic_clone@runtime_error@uhd@@UEBAPEAU12@XZ
; public: virtual struct uhd::syntax_error *__ptr64 __cdecl uhd::syntax_error::dynamic_clone(void)const __ptr64 
?dynamic_clone@syntax_error@uhd@@UEBAPEAU12@XZ
; public: virtual struct uhd::system_error *__ptr64 __cdecl uhd::system_error::dynamic_clone(void)const __ptr64 
?dynamic_clone@system_error@uhd@@UEBAPEAU12@XZ
; public: virtual struct uhd::type_error *__ptr64 __cdecl uhd::type_error::dynamic_clone(void)const __ptr64 
?dynamic_clone@type_error@uhd@@UEBAPEAU12@XZ
; public: virtual struct uhd::usb_error *__ptr64 __cdecl uhd::usb_error::dynamic_clone(void)const __ptr64 
?dynamic_clone@usb_error@uhd@@UEBAPEAU12@XZ
; public: virtual struct uhd::value_error *__ptr64 __cdecl uhd::value_error::dynamic_clone(void)const __ptr64 
?dynamic_clone@value_error@uhd@@UEBAPEAU12@XZ
; public: virtual void __cdecl uhd::access_error::dynamic_throw(void)const __ptr64 
?dynamic_throw@access_error@uhd@@UEBAXXZ
; public: virtual void __cdecl uhd::assertion_error::dynamic_throw(void)const __ptr64 
?dynamic_throw@assertion_error@uhd@@UEBAXXZ
; public: virtual void __cdecl uhd::environment_error::dynamic_throw(void)const __ptr64 
?dynamic_throw@environment_error@uhd@@UEBAXXZ
; public: virtual void __cdecl uhd::index_error::dynamic_throw(void)const __ptr64 
?dynamic_throw@index_error@uhd@@UEBAXXZ
; public: virtual void __cdecl uhd::io_error::dynamic_throw(void)const __ptr64 
?dynamic_throw@io_error@uhd@@UEBAXXZ
; public: virtual void __cdecl uhd::key_error::dynamic_throw(void)const __ptr64 
?dynamic_throw@key_error@uhd@@UEBAXXZ
; public: virtual void __cdecl uhd::lookup_error::dynamic_throw(void)const __ptr64 
?dynamic_throw@lookup_error@uhd@@UEBAXXZ
; public: virtual void __cdecl uhd::narrowing_error::dynamic_throw(void)const __ptr64 
?dynamic_throw@narrowing_error@uhd@@UEBAXXZ
; public: virtual void __cdecl uhd::not_implemented_error::dynamic_throw(void)const __ptr64 
?dynamic_throw@not_implemented_error@uhd@@UEBAXXZ
; public: virtual void __cdecl uhd::op_failed::dynamic_throw(void)const __ptr64 
?dynamic_throw@op_failed@uhd@@UEBAXXZ
; public: virtual void __cdecl uhd::op_seqerr::dynamic_throw(void)const __ptr64 
?dynamic_throw@op_seqerr@uhd@@UEBAXXZ
; public: virtual void __cdecl uhd::op_timeout::dynamic_throw(void)const __ptr64 
?dynamic_throw@op_timeout@uhd@@UEBAXXZ
; public: virtual void __cdecl uhd::op_timerr::dynamic_throw(void)const __ptr64 
?dynamic_throw@op_timerr@uhd@@UEBAXXZ
; public: virtual void __cdecl uhd::os_error::dynamic_throw(void)const __ptr64 
?dynamic_throw@os_error@uhd@@UEBAXXZ
; public: virtual void __cdecl uhd::resolve_error::dynamic_throw(void)const __ptr64 
?dynamic_throw@resolve_error@uhd@@UEBAXXZ
; public: virtual void __cdecl uhd::rfnoc_error::dynamic_throw(void)const __ptr64 
?dynamic_throw@rfnoc_error@uhd@@UEBAXXZ
; public: virtual void __cdecl uhd::routing_error::dynamic_throw(void)const __ptr64 
?dynamic_throw@routing_error@uhd@@UEBAXXZ
; public: virtual void __cdecl uhd::runtime_error::dynamic_throw(void)const __ptr64 
?dynamic_throw@runtime_error@uhd@@UEBAXXZ
; public: virtual void __cdecl uhd::syntax_error::dynamic_throw(void)const __ptr64 
?dynamic_throw@syntax_error@uhd@@UEBAXXZ
; public: virtual void __cdecl uhd::system_error::dynamic_throw(void)const __ptr64 
?dynamic_throw@system_error@uhd@@UEBAXXZ
; public: virtual void __cdecl uhd::type_error::dynamic_throw(void)const __ptr64 
?dynamic_throw@type_error@uhd@@UEBAXXZ
; public: virtual void __cdecl uhd::usb_error::dynamic_throw(void)const __ptr64 
?dynamic_throw@usb_error@uhd@@UEBAXXZ
; public: virtual void __cdecl uhd::value_error::dynamic_throw(void)const __ptr64 
?dynamic_throw@value_error@uhd@@UEBAXXZ
; public: class std::<class uhd::i2c_iface> __cdecl uhd::i2c_iface::eeprom16(void)__ptr64 
?eeprom16@i2c_iface@uhd@@QEAA?AV?$shared_ptr@Vi2c_iface@uhd@@@std@@XZ
; public: bool __cdecl std::<struct uhd::usrp::subdev_spec_pair_t,class std::<struct uhd::usrp::subdev_spec_pair_t>>::empty(void)const __ptr64 
?empty@?$vector@Usubdev_spec_pair_t@usrp@uhd@@V?$allocator@Usubdev_spec_pair_t@usrp@uhd@@@std@@@std@@QEBA_NXZ
; public: bool __cdecl std::<class uhd::range_t,class std::<class uhd::range_t>>::empty(void)const __ptr64 
?empty@?$vector@Vrange_t@uhd@@V?$allocator@Vrange_t@uhd@@@std@@@std@@QEBA_NXZ
; class std::<char,struct std::<char>,class std::<char>> const __cdecl uhd::build_info::enabled_components(void)
?enabled_components@build_info@uhd@@YA?BV?$basic_string@DU?$char_traits@D@std@@V?$allocator@D@2@@std@@XZ
; public: class std::<class std::<struct std::<struct uhd::usrp::subdev_spec_pair_t>>> __cdecl std::<struct uhd::usrp::subdev_spec_pair_t,class std::<struct uhd::usrp::subdev_spec_pair_t>>::end(void)__ptr64 
?end@?$vector@Usubdev_spec_pair_t@usrp@uhd@@V?$allocator@Usubdev_spec_pair_t@usrp@uhd@@@std@@@std@@QEAA?AV?$_Vector_iterator@V?$_Vector_val@U?$_Simple_types@Usubdev_spec_pair_t@usrp@uhd@@@std@@@std@@@2@XZ
; public: class std::<class std::<struct std::<struct uhd::usrp::subdev_spec_pair_t>>> __cdecl std::<struct uhd::usrp::subdev_spec_pair_t,class std::<struct uhd::usrp::subdev_spec_pair_t>>::end(void)const __ptr64 
?end@?$vector@Usubdev_spec_pair_t@usrp@uhd@@V?$allocator@Usubdev_spec_pair_t@usrp@uhd@@@std@@@std@@QEBA?AV?$_Vector_const_iterator@V?$_Vector_val@U?$_Simple_types@Usubdev_spec_pair_t@usrp@uhd@@@std@@@std@@@2@XZ
; public: class std::<class std::<struct std::<class uhd::range_t>>> __cdecl std::<class uhd::range_t,class std::<class uhd::range_t>>::end(void)__ptr64 
?end@?$vector@Vrange_t@uhd@@V?$allocator@Vrange_t@uhd@@@std@@@std@@QEAA?AV?$_Vector_iterator@V?$_Vector_val@U?$_Simple_types@Vrange_t@uhd@@@std@@@std@@@2@XZ
; public: class std::<class std::<struct std::<class uhd::range_t>>> __cdecl std::<class uhd::range_t,class std::<class uhd::range_t>>::end(void)const __ptr64 
?end@?$vector@Vrange_t@uhd@@V?$allocator@Vrange_t@uhd@@@std@@@std@@QEBA?AV?$_Vector_const_iterator@V?$_Vector_val@U?$_Simple_types@Vrange_t@uhd@@@std@@@std@@@2@XZ
; public: static int __cdecl uhd::niusrprio::niusrprio_session::enumerate(class std::<char,struct std::<char>,class std::<char>> const &__ptr64 ,class std::<struct uhd::usrprio_rpc::usrprio_device_info,class std::<struct uhd::usrprio_rpc::usrprio_device_info>> &__ptr64 )
?enumerate@niusrprio_session@niusrprio@uhd@@SAHAEBV?$basic_string@DU?$char_traits@D@std@@V?$allocator@D@2@@std@@AEAV?$vector@Uusrprio_device_info@usrprio_rpc@uhd@@V?$allocator@Uusrprio_device_info@usrprio_rpc@uhd@@@std@@@5@@Z
; public: virtual class std::<class std::<char,struct std::<char>,class std::<char>>,class std::<class std::<char,struct std::<char>,class std::<char>>>> __cdecl uhd::soft_regmap_db_t::enumerate(void)const __ptr64 
?enumerate@soft_regmap_db_t@uhd@@UEBA?AV?$vector@V?$basic_string@DU?$char_traits@D@std@@V?$allocator@D@2@@std@@V?$allocator@V?$basic_string@DU?$char_traits@D@std@@V?$allocator@D@2@@std@@@2@@std@@XZ
; public: virtual class std::<class std::<char,struct std::<char>,class std::<char>>,class std::<class std::<char,struct std::<char>,class std::<char>>>> __cdecl uhd::soft_regmap_t::enumerate(void)const __ptr64 
?enumerate@soft_regmap_t@uhd@@UEBA?AV?$vector@V?$basic_string@DU?$char_traits@D@std@@V?$allocator@D@2@@std@@V?$allocator@V?$basic_string@DU?$char_traits@D@std@@V?$allocator@D@2@@std@@@2@@std@@XZ
; public: class std::<class std::<struct std::<struct uhd::usrp::subdev_spec_pair_t>>> __cdecl std::<struct uhd::usrp::subdev_spec_pair_t,class std::<struct uhd::usrp::subdev_spec_pair_t>>::erase(class std::<class std::<struct std::<struct uhd::usrp::subdev_spec_pair_t>>>,class std::<class std::<struct std::<struct uhd::usrp::subdev_spec_pair_t>>>)__ptr64 
?erase@?$vector@Usubdev_spec_pair_t@usrp@uhd@@V?$allocator@Usubdev_spec_pair_t@usrp@uhd@@@std@@@std@@QEAA?AV?$_Vector_iterator@V?$_Vector_val@U?$_Simple_types@Usubdev_spec_pair_t@usrp@uhd@@@std@@@std@@@2@V?$_Vector_const_iterator@V?$_Vector_val@U?$_Simple_types@Usubdev_spec_pair_t@usrp@uhd@@@std@@@std@@@2@0@Z
; public: class std::<class std::<struct std::<struct uhd::usrp::subdev_spec_pair_t>>> __cdecl std::<struct uhd::usrp::subdev_spec_pair_t,class std::<struct uhd::usrp::subdev_spec_pair_t>>::erase(class std::<class std::<struct std::<struct uhd::usrp::subdev_spec_pair_t>>>)__ptr64 
?erase@?$vector@Usubdev_spec_pair_t@usrp@uhd@@V?$allocator@Usubdev_spec_pair_t@usrp@uhd@@@std@@@std@@QEAA?AV?$_Vector_iterator@V?$_Vector_val@U?$_Simple_types@Usubdev_spec_pair_t@usrp@uhd@@@std@@@std@@@2@V?$_Vector_const_iterator@V?$_Vector_val@U?$_Simple_types@Usubdev_spec_pair_t@usrp@uhd@@@std@@@std@@@2@@Z
; public: class std::<class std::<struct std::<class uhd::range_t>>> __cdecl std::<class uhd::range_t,class std::<class uhd::range_t>>::erase(class std::<class std::<struct std::<class uhd::range_t>>>,class std::<class std::<struct std::<class uhd::range_t>>>)__ptr64 
?erase@?$vector@Vrange_t@uhd@@V?$allocator@Vrange_t@uhd@@@std@@@std@@QEAA?AV?$_Vector_iterator@V?$_Vector_val@U?$_Simple_types@Vrange_t@uhd@@@std@@@std@@@2@V?$_Vector_const_iterator@V?$_Vector_val@U?$_Simple_types@Vrange_t@uhd@@@std@@@std@@@2@0@Z
; public: class std::<class std::<struct std::<class uhd::range_t>>> __cdecl std::<class uhd::range_t,class std::<class uhd::range_t>>::erase(class std::<class std::<struct std::<class uhd::range_t>>>)__ptr64 
?erase@?$vector@Vrange_t@uhd@@V?$allocator@Vrange_t@uhd@@@std@@@std@@QEAA?AV?$_Vector_iterator@V?$_Vector_val@U?$_Simple_types@Vrange_t@uhd@@@std@@@std@@@2@V?$_Vector_const_iterator@V?$_Vector_val@U?$_Simple_types@Vrange_t@uhd@@@std@@@std@@@2@@Z
; enum uhd_error __cdecl error_from_uhd_exception(struct uhd::exception const *__ptr64)
?error_from_uhd_exception@@YA?AW4uhd_error@@PEBUexception@uhd@@@Z
; public: static class std::<class uhd::device_addr_t,class std::<class uhd::device_addr_t>> __cdecl uhd::device::find(class uhd::device_addr_t const &__ptr64 ,enum uhd::device::device_filter_t)
?find@device@uhd@@SA?AV?$vector@Vdevice_addr_t@uhd@@V?$allocator@Vdevice_addr_t@uhd@@@std@@@std@@AEBVdevice_addr_t@2@W4device_filter_t@12@@Z
; class std::<char,struct std::<char>,class std::<char>> __cdecl uhd::find_image_path(class std::<char,struct std::<char>,class std::<char>> const &__ptr64 ,class std::<char,struct std::<char>,class std::<char>> const &__ptr64 )
?find_image_path@uhd@@YA?AV?$basic_string@DU?$char_traits@D@std@@V?$allocator@D@2@@std@@AEBV23@0@Z
; class std::<char,struct std::<char>,class std::<char>> __cdecl uhd::find_utility(class std::<char,struct std::<char>,class std::<char>> const &__ptr64 )
?find_utility@uhd@@YA?AV?$basic_string@DU?$char_traits@D@std@@V?$allocator@D@2@@std@@AEBV23@@Z
; public: virtual void __cdecl uhd::<unsigned int,0x1ULL,0x0ULL>::flush(void)__ptr64 
?flush@?$soft_register_t@I$00$0A@@uhd@@UEAAXXZ
; public: virtual void __cdecl uhd::<unsigned int,0x0ULL,0x1ULL>::flush(void)__ptr64 
?flush@?$soft_register_t@I$0A@$00@uhd@@UEAAXXZ
; public: virtual void __cdecl uhd::<unsigned __int64,0x1ULL,0x0ULL>::flush(void)__ptr64 
?flush@?$soft_register_t@_K$00$0A@@uhd@@UEAAXXZ
; public: void __cdecl uhd::soft_regmap_t::flush(void)__ptr64 
?flush@soft_regmap_t@uhd@@QEAAXXZ
; private: void __cdecl uhd::rfnoc::node_t::forward_edge_property(class uhd::rfnoc::property_base_t *__ptr64,unsigned __int64)__ptr64 
?forward_edge_property@node_t@rfnoc@uhd@@AEAAXPEAVproperty_base_t@23@_K@Z
; public: static class uhd::mac_addr_t __cdecl uhd::mac_addr_t::from_bytes(class std::<unsigned char,class std::<unsigned char>> const &__ptr64 )
?from_bytes@mac_addr_t@uhd@@SA?AV12@AEBV?$vector@EV?$allocator@E@std@@@std@@@Z
; public: static class uhd::usrp::dboard_id_t __cdecl uhd::usrp::dboard_id_t::from_string(class std::<char,struct std::<char>,class std::<char>> const &__ptr64 )
?from_string@dboard_id_t@usrp@uhd@@SA?AV123@AEBV?$basic_string@DU?$char_traits@D@std@@V?$allocator@D@2@@std@@@Z
; public: static class uhd::mac_addr_t __cdecl uhd::mac_addr_t::from_string(class std::<char,struct std::<char>,class std::<char>> const &__ptr64 )
?from_string@mac_addr_t@uhd@@SA?AV12@AEBV?$basic_string@DU?$char_traits@D@std@@V?$allocator@D@2@@std@@@Z
; public: static class uhd::time_spec_t __cdecl uhd::time_spec_t::from_ticks(__int64,double)
?from_ticks@time_spec_t@uhd@@SA?AV12@_JN@Z
; public: static class uhd::usrp::dboard_id_t __cdecl uhd::usrp::dboard_id_t::from_uint16(unsigned short)
?from_uint16@dboard_id_t@usrp@uhd@@SA?AV123@G@Z
; public: struct uhd::usrp::subdev_spec_pair_t &__ptr64 __cdecl std::<struct uhd::usrp::subdev_spec_pair_t,class std::<struct uhd::usrp::subdev_spec_pair_t>>::front(void)__ptr64 
?front@?$vector@Usubdev_spec_pair_t@usrp@uhd@@V?$allocator@Usubdev_spec_pair_t@usrp@uhd@@@std@@@std@@QEAAAEAUsubdev_spec_pair_t@usrp@uhd@@XZ
; public: struct uhd::usrp::subdev_spec_pair_t const &__ptr64 __cdecl std::<struct uhd::usrp::subdev_spec_pair_t,class std::<struct uhd::usrp::subdev_spec_pair_t>>::front(void)const __ptr64 
?front@?$vector@Usubdev_spec_pair_t@usrp@uhd@@V?$allocator@Usubdev_spec_pair_t@usrp@uhd@@@std@@@std@@QEBAAEBUsubdev_spec_pair_t@usrp@uhd@@XZ
; public: class uhd::range_t &__ptr64 __cdecl std::<class uhd::range_t,class std::<class uhd::range_t>>::front(void)__ptr64 
?front@?$vector@Vrange_t@uhd@@V?$allocator@Vrange_t@uhd@@@std@@@std@@QEAAAEAVrange_t@uhd@@XZ
; public: class uhd::range_t const &__ptr64 __cdecl std::<class uhd::range_t,class std::<class uhd::range_t>>::front(void)const __ptr64 
?front@?$vector@Vrange_t@uhd@@V?$allocator@Vrange_t@uhd@@@std@@@std@@QEBAAEBVrange_t@uhd@@XZ
; public: static class std::<char,struct std::<char>,class std::<char>> __cdecl b200_iface::fx3_state_string(unsigned char)
?fx3_state_string@b200_iface@@SA?AV?$basic_string@DU?$char_traits@D@std@@V?$allocator@D@2@@std@@E@Z
; public: class std::<char,struct std::<char>,class std::<char>> const &__ptr64 __cdecl uhd::<class std::<char,struct std::<char>,class std::<char>>,class std::<char,struct std::<char>,class std::<char>>>::get(class std::<char,struct std::<char>,class std::<char>> const &__ptr64 ,class std::<char,struct std::<char>,class std::<char>> const &__ptr64 )const __ptr64 
?get@?$dict@V?$basic_string@DU?$char_traits@D@std@@V?$allocator@D@2@@std@@V12@@uhd@@QEBAAEBV?$basic_string@DU?$char_traits@D@std@@V?$allocator@D@2@@std@@AEBV34@0@Z
; public: class std::<char,struct std::<char>,class std::<char>> const &__ptr64 __cdecl uhd::<class std::<char,struct std::<char>,class std::<char>>,class std::<char,struct std::<char>,class std::<char>>>::get(class std::<char,struct std::<char>,class std::<char>> const &__ptr64 )const __ptr64 
?get@?$dict@V?$basic_string@DU?$char_traits@D@std@@V?$allocator@D@2@@std@@V12@@uhd@@QEBAAEBV?$basic_string@DU?$char_traits@D@std@@V?$allocator@D@2@@std@@AEBV34@@Z
; public: unsigned int __cdecl uhd::<unsigned int,0x1ULL,0x0ULL>::get(unsigned int)__ptr64 
?get@?$soft_register_t@I$00$0A@@uhd@@QEAAII@Z
; public: unsigned int __cdecl uhd::<unsigned int,0x0ULL,0x1ULL>::get(unsigned int)__ptr64 
?get@?$soft_register_t@I$0A@$00@uhd@@QEAAII@Z
; public: unsigned __int64 __cdecl uhd::<unsigned __int64,0x1ULL,0x0ULL>::get(unsigned int)__ptr64 
?get@?$soft_register_t@_K$00$0A@@uhd@@QEAA_KI@Z
; public: class std::<char,struct std::<char>,class std::<char>> __cdecl uhd::rfnoc::block_id_t::get(void)const __ptr64 
?get@block_id_t@rfnoc@uhd@@QEBA?AV?$basic_string@DU?$char_traits@D@std@@V?$allocator@D@2@@std@@XZ
; class std::<char,struct std::<char>,class std::<char>> __cdecl uhd::get_abi_string(void)
?get_abi_string@uhd@@YA?AV?$basic_string@DU?$char_traits@D@std@@V?$allocator@D@2@@std@@XZ
; public: enum uhd::rfnoc::property_base_t::access_t __cdecl uhd::rfnoc::property_base_t::get_access_mode(void)const __ptr64 
?get_access_mode@property_base_t@rfnoc@uhd@@QEBA?AW4access_t@123@XZ
; public: class std::<struct uhd::usrp::subdev_spec_pair_t> __cdecl std::<struct uhd::usrp::subdev_spec_pair_t,class std::<struct uhd::usrp::subdev_spec_pair_t>>::get_allocator(void)const __ptr64 
?get_allocator@?$vector@Usubdev_spec_pair_t@usrp@uhd@@V?$allocator@Usubdev_spec_pair_t@usrp@uhd@@@std@@@std@@QEBA?AV?$allocator@Usubdev_spec_pair_t@usrp@uhd@@@2@XZ
; public: class std::<class uhd::range_t> __cdecl std::<class uhd::range_t,class std::<class uhd::range_t>>::get_allocator(void)const __ptr64 
?get_allocator@?$vector@Vrange_t@uhd@@V?$allocator@Vrange_t@uhd@@@std@@@std@@QEBA?AV?$allocator@Vrange_t@uhd@@@2@XZ
; public: class std::<char,struct std::<char>,class std::<char>> const &__ptr64 __cdecl uhd::analog_filter_base::get_analog_type(void)__ptr64 
?get_analog_type@analog_filter_base@uhd@@QEAAAEBV?$basic_string@DU?$char_traits@D@std@@V?$allocator@D@2@@std@@XZ
; public: virtual class std::<char,struct std::<char>,class std::<char>> __cdecl uhd::rfnoc::rf_control::enumerated_antenna::get_antenna(unsigned __int64)const __ptr64 
?get_antenna@enumerated_antenna@rf_control@rfnoc@uhd@@UEBA?AV?$basic_string@DU?$char_traits@D@std@@V?$allocator@D@2@@std@@_K@Z
; public: virtual class std::<class std::<char,struct std::<char>,class std::<char>>,class std::<class std::<char,struct std::<char>,class std::<char>>>> __cdecl uhd::rfnoc::rf_control::enumerated_antenna::get_antennas(unsigned __int64)const __ptr64 
?get_antennas@enumerated_antenna@rf_control@rfnoc@uhd@@UEBA?AV?$vector@V?$basic_string@DU?$char_traits@D@std@@V?$allocator@D@2@@std@@V?$allocator@V?$basic_string@DU?$char_traits@D@std@@V?$allocator@D@2@@std@@@2@@std@@_K@Z
; public: virtual int __cdecl uhd::niusrprio::niriok_proxy_impl_v1::get_attribute(enum uhd::niusrprio::nirio_device_attribute32_t,unsigned int &__ptr64 )__ptr64 
?get_attribute@niriok_proxy_impl_v1@niusrprio@uhd@@UEAAHW4nirio_device_attribute32_t@23@AEAI@Z
; public: virtual int __cdecl uhd::niusrprio::niriok_proxy_impl_v2::get_attribute(enum uhd::niusrprio::nirio_device_attribute32_t,unsigned int &__ptr64 )__ptr64 
?get_attribute@niriok_proxy_impl_v2@niusrprio@uhd@@UEAAHW4nirio_device_attribute32_t@23@AEAI@Z
; public: virtual unsigned __int64 __cdecl uhd::<unsigned int,0x1ULL,0x0ULL>::get_bitwidth(void)__ptr64 
?get_bitwidth@?$soft_register_t@I$00$0A@@uhd@@UEAA_KXZ
; public: virtual unsigned __int64 __cdecl uhd::<unsigned int,0x0ULL,0x1ULL>::get_bitwidth(void)__ptr64 
?get_bitwidth@?$soft_register_t@I$0A@$00@uhd@@UEAA_KXZ
; public: virtual unsigned __int64 __cdecl uhd::<unsigned __int64,0x1ULL,0x0ULL>::get_bitwidth(void)__ptr64 
?get_bitwidth@?$soft_register_t@_K$00$0A@@uhd@@UEAA_KXZ
; public: class uhd::device_addr_t __cdecl uhd::rfnoc::noc_block_base::get_block_args(void)const __ptr64 
?get_block_args@noc_block_base@rfnoc@uhd@@QEBA?AVdevice_addr_t@3@XZ
; class std::<struct uhd::rfnoc::graph_edge_t,class std::<struct uhd::rfnoc::graph_edge_t>> __cdecl uhd::rfnoc::get_block_chain(class std::<class uhd::rfnoc::rfnoc_graph>,class uhd::rfnoc::block_id_t,unsigned __int64,bool)
?get_block_chain@rfnoc@uhd@@YA?AV?$vector@Ugraph_edge_t@rfnoc@uhd@@V?$allocator@Ugraph_edge_t@rfnoc@uhd@@@std@@@std@@V?$shared_ptr@Vrfnoc_graph@rfnoc@uhd@@@4@Vblock_id_t@12@_K_N@Z
; public: unsigned __int64 __cdecl uhd::rfnoc::block_id_t::get_block_count(void)const __ptr64 
?get_block_count@block_id_t@rfnoc@uhd@@QEBA_KXZ
; public: class uhd::rfnoc::block_id_t const &__ptr64 __cdecl uhd::rfnoc::noc_block_base::get_block_id(void)const __ptr64 
?get_block_id@noc_block_base@rfnoc@uhd@@QEBAAEBVblock_id_t@23@XZ
; public: class std::<char,struct std::<char>,class std::<char>> __cdecl uhd::rfnoc::block_id_t::get_block_name(void)const __ptr64 
?get_block_name@block_id_t@rfnoc@uhd@@QEBA?AV?$basic_string@DU?$char_traits@D@std@@V?$allocator@D@2@@std@@XZ
; unsigned __int64 __cdecl uhd::convert::get_bytes_per_item(class std::<char,struct std::<char>,class std::<char>> const &__ptr64 )
?get_bytes_per_item@convert@uhd@@YA_KAEBV?$basic_string@DU?$char_traits@D@std@@V?$allocator@D@2@@std@@@Z
; class std::<char,struct std::<char>,class std::<char>> __cdecl get_c_global_error_string(void)
?get_c_global_error_string@@YA?AV?$basic_string@DU?$char_traits@D@std@@V?$allocator@D@2@@std@@XZ
; class std::<char,struct std::<char>,class std::<char>> __cdecl uhd::get_cal_data_path(void)
?get_cal_data_path@uhd@@YA?AV?$basic_string@DU?$char_traits@D@std@@V?$allocator@D@2@@std@@XZ
; public: unsigned __int64 __cdecl uhd::rfnoc::noc_block_base::get_chdr_hdr_len(bool)const __ptr64 
?get_chdr_hdr_len@noc_block_base@rfnoc@uhd@@QEBA_K_N@Z
; public: enum uhd::rfnoc::chdr_w_t __cdecl uhd::rfnoc::chdr::mgmt_payload::get_chdr_w(void)const __ptr64 
?get_chdr_w@mgmt_payload@chdr@rfnoc@uhd@@QEBA?AW4chdr_w_t@34@XZ
; public: virtual class uhd::time_spec_t __cdecl uhd::rfnoc::node_t::get_command_time(unsigned __int64)const __ptr64 
?get_command_time@node_t@rfnoc@uhd@@UEBA?AVtime_spec_t@3@_K@Z
; class std::<char,struct std::<char>,class std::<char>> __cdecl uhd::get_component(void)
?get_component@uhd@@YA?AV?$basic_string@DU?$char_traits@D@std@@V?$allocator@D@2@@std@@XZ
; public: static class boost::serialization::<struct uhd::usrprio_rpc::usrprio_device_info> const &__ptr64 __cdecl boost::serialization::<class boost::serialization::<struct uhd::usrprio_rpc::usrprio_device_info>>::get_const_instance(void)
?get_const_instance@?$singleton@V?$extended_type_info_typeid@Uusrprio_device_info@usrprio_rpc@uhd@@@serialization@boost@@@serialization@boost@@SAAEBV?$extended_type_info_typeid@Uusrprio_device_info@usrprio_rpc@uhd@@@23@XZ
; public: static class boost::archive::detail::<class boost::archive::text_iarchive,struct uhd::usrprio_rpc::usrprio_device_info> const &__ptr64 __cdecl boost::serialization::<class boost::archive::detail::<class boost::archive::text_iarchive,struct uhd::usrprio_rpc::usrprio_device_info>>::get_const_instance(void)
?get_const_instance@?$singleton@V?$iserializer@Vtext_iarchive@archive@boost@@Uusrprio_device_info@usrprio_rpc@uhd@@@detail@archive@boost@@@serialization@boost@@SAAEBV?$iserializer@Vtext_iarchive@archive@boost@@Uusrprio_device_info@usrprio_rpc@uhd@@@detail@archive@3@XZ
; public: static class boost::archive::detail::extra_detail::<class boost::archive::text_iarchive> const &__ptr64 __cdecl boost::serialization::<class boost::archive::detail::extra_detail::<class boost::archive::text_iarchive>>::get_const_instance(void)
?get_const_instance@?$singleton@V?$map@Vtext_iarchive@archive@boost@@@extra_detail@detail@archive@boost@@@serialization@boost@@SAAEBV?$map@Vtext_iarchive@archive@boost@@@extra_detail@detail@archive@3@XZ
; public: static class boost::archive::detail::extra_detail::<class boost::archive::text_oarchive> const &__ptr64 __cdecl boost::serialization::<class boost::archive::detail::extra_detail::<class boost::archive::text_oarchive>>::get_const_instance(void)
?get_const_instance@?$singleton@V?$map@Vtext_oarchive@archive@boost@@@extra_detail@detail@archive@boost@@@serialization@boost@@SAAEBV?$map@Vtext_oarchive@archive@boost@@@extra_detail@detail@archive@3@XZ
; public: static class std::<class boost::serialization::extended_type_info const *__ptr64,struct boost::serialization::detail::key_compare,class std::<class boost::serialization::extended_type_info const *__ptr64>> const &__ptr64 __cdecl boost::serialization::<class std::<class boost::serialization::extended_type_info const *__ptr64,struct boost::serialization::detail::key_compare,class std::<class boost::serialization::extended_type_info const *__ptr64>>>::get_const_instance(void)
?get_const_instance@?$singleton@V?$multiset@PEBVextended_type_info@serialization@boost@@Ukey_compare@detail@23@V?$allocator@PEBVextended_type_info@serialization@boost@@@std@@@std@@@serialization@boost@@SAAEBV?$multiset@PEBVextended_type_info@serialization@boost@@Ukey_compare@detail@23@V?$allocator@PEBVextended_type_info@serialization@boost@@@std@@@std@@XZ
; public: static class std::<class boost::serialization::typeid_system::extended_type_info_typeid_0 const *__ptr64,struct boost::serialization::typeid_system::type_compare,class std::<class boost::serialization::typeid_system::extended_type_info_typeid_0 const *__ptr64>> const &__ptr64 __cdecl boost::serialization::<class std::<class boost::serialization::typeid_system::extended_type_info_typeid_0 const *__ptr64,struct boost::serialization::typeid_system::type_compare,class std::<class boost::serialization::typeid_system::extended_type_info_typeid_0 const *__ptr64>>>::get_const_instance(void)
?get_const_instance@?$singleton@V?$multiset@PEBVextended_type_info_typeid_0@typeid_system@serialization@boost@@Utype_compare@234@V?$allocator@PEBVextended_type_info_typeid_0@typeid_system@serialization@boost@@@std@@@std@@@serialization@boost@@SAAEBV?$multiset@PEBVextended_type_info_typeid_0@typeid_system@serialization@boost@@Utype_compare@234@V?$allocator@PEBVextended_type_info_typeid_0@typeid_system@serialization@boost@@@std@@@std@@XZ
; class std::<class std::<class uhd::convert::converter> __cdecl(void)> __cdecl uhd::convert::get_converter(struct uhd::convert::id_type const &__ptr64 ,int)
?get_converter@convert@uhd@@YA?AV?$function@$$A6A?AV?$shared_ptr@Vconverter@convert@uhd@@@std@@XZ@std@@AEBUid_type@12@H@Z
; public: int __cdecl uhd::usrprio_rpc::usrprio_rpc_client::get_ctor_status(void)__ptr64 
?get_ctor_status@usrprio_rpc_client@usrprio_rpc@uhd@@QEAAHXZ
; public: double __cdecl uhd::analog_filter_lp::get_cutoff(void)__ptr64 
?get_cutoff@analog_filter_lp@uhd@@QEAANXZ
; public: static class std::<class std::<class uhd::transport::usb_device_handle>,class std::<class std::<class uhd::transport::usb_device_handle>>> __cdecl uhd::transport::usb_device_handle::get_device_list(class std::<struct std::<unsigned short,unsigned short>,class std::<struct std::<unsigned short,unsigned short>>> const &__ptr64 )
?get_device_list@usb_device_handle@transport@uhd@@SA?AV?$vector@V?$shared_ptr@Vusb_device_handle@transport@uhd@@@std@@V?$allocator@V?$shared_ptr@Vusb_device_handle@transport@uhd@@@std@@@2@@std@@AEBV?$vector@U?$pair@GG@std@@V?$allocator@U?$pair@GG@std@@@2@@5@@Z
; public: static class std::<class std::<class uhd::transport::usb_device_handle>,class std::<class std::<class uhd::transport::usb_device_handle>>> __cdecl uhd::transport::usb_device_handle::get_device_list(unsigned short,unsigned short)
?get_device_list@usb_device_handle@transport@uhd@@SA?AV?$vector@V?$shared_ptr@Vusb_device_handle@transport@uhd@@@std@@V?$allocator@V?$shared_ptr@Vusb_device_handle@transport@uhd@@@std@@@2@@std@@GG@Z
; public: unsigned __int64 __cdecl uhd::rfnoc::block_id_t::get_device_no(void)const __ptr64 
?get_device_no@block_id_t@rfnoc@uhd@@QEBA_KXZ
; public: enum uhd::device::device_filter_t __cdecl uhd::device::get_device_type(void)const __ptr64 
?get_device_type@device@uhd@@QEBA?AW4device_filter_t@12@XZ
; public: static enum uhd::features::discoverable_feature::feature_id_t __cdecl uhd::features::adc_self_calibration_iface::get_feature_id(void)
?get_feature_id@adc_self_calibration_iface@features@uhd@@SA?AW4feature_id_t@discoverable_feature@23@XZ
; public: static enum uhd::features::discoverable_feature::feature_id_t __cdecl uhd::features::gpio_power_iface::get_feature_id(void)
?get_feature_id@gpio_power_iface@features@uhd@@SA?AW4feature_id_t@discoverable_feature@23@XZ
; public: static enum uhd::features::discoverable_feature::feature_id_t __cdecl uhd::features::internal_sync_iface::get_feature_id(void)
?get_feature_id@internal_sync_iface@features@uhd@@SA?AW4feature_id_t@discoverable_feature@23@XZ
; public: static enum uhd::features::discoverable_feature::feature_id_t __cdecl uhd::features::ref_clk_calibration_iface::get_feature_id(void)
?get_feature_id@ref_clk_calibration_iface@features@uhd@@SA?AW4feature_id_t@discoverable_feature@23@XZ
; public: static enum uhd::features::discoverable_feature::feature_id_t __cdecl uhd::features::spi_getter_iface::get_feature_id(void)
?get_feature_id@spi_getter_iface@features@uhd@@SA?AW4feature_id_t@discoverable_feature@23@XZ
; public: static enum uhd::features::discoverable_feature::feature_id_t __cdecl uhd::features::trig_io_mode_iface::get_feature_id(void)
?get_feature_id@trig_io_mode_iface@features@uhd@@SA?AW4feature_id_t@discoverable_feature@23@XZ
; public: virtual class std::<char,struct std::<char>,class std::<char>> __cdecl uhd::features::adc_self_calibration_iface::get_feature_name(void)const __ptr64 
?get_feature_name@adc_self_calibration_iface@features@uhd@@UEBA?AV?$basic_string@DU?$char_traits@D@std@@V?$allocator@D@2@@std@@XZ
; public: virtual class std::<char,struct std::<char>,class std::<char>> __cdecl uhd::features::gpio_power_iface::get_feature_name(void)const __ptr64 
?get_feature_name@gpio_power_iface@features@uhd@@UEBA?AV?$basic_string@DU?$char_traits@D@std@@V?$allocator@D@2@@std@@XZ
; public: virtual class std::<char,struct std::<char>,class std::<char>> __cdecl uhd::features::internal_sync_iface::get_feature_name(void)const __ptr64 
?get_feature_name@internal_sync_iface@features@uhd@@UEBA?AV?$basic_string@DU?$char_traits@D@std@@V?$allocator@D@2@@std@@XZ
; public: virtual class std::<char,struct std::<char>,class std::<char>> __cdecl uhd::features::ref_clk_calibration_iface::get_feature_name(void)const __ptr64 
?get_feature_name@ref_clk_calibration_iface@features@uhd@@UEBA?AV?$basic_string@DU?$char_traits@D@std@@V?$allocator@D@2@@std@@XZ
; public: virtual class std::<char,struct std::<char>,class std::<char>> __cdecl uhd::features::spi_getter_iface::get_feature_name(void)const __ptr64 
?get_feature_name@spi_getter_iface@features@uhd@@UEBA?AV?$basic_string@DU?$char_traits@D@std@@V?$allocator@D@2@@std@@XZ
; public: virtual class std::<char,struct std::<char>,class std::<char>> __cdecl uhd::features::trig_io_mode_iface::get_feature_name(void)const __ptr64 
?get_feature_name@trig_io_mode_iface@features@uhd@@UEBA?AV?$basic_string@DU?$char_traits@D@std@@V?$allocator@D@2@@std@@XZ
; public: double __cdecl uhd::time_spec_t::get_frac_secs(void)const __ptr64 
?get_frac_secs@time_spec_t@uhd@@QEBANXZ
; public: __int64 __cdecl uhd::time_spec_t::get_full_secs(void)const __ptr64 
?get_full_secs@time_spec_t@uhd@@QEBA_JXZ
; public: virtual class std::<class std::<char,struct std::<char>,class std::<char>>,class std::<class std::<char,struct std::<char>,class std::<char>>>> __cdecl uhd::rfnoc::mb_controller::get_gpio_banks(void)const __ptr64 
?get_gpio_banks@mb_controller@rfnoc@uhd@@UEBA?AV?$vector@V?$basic_string@DU?$char_traits@D@std@@V?$allocator@D@2@@std@@V?$allocator@V?$basic_string@DU?$char_traits@D@std@@V?$allocator@D@2@@std@@@2@@std@@XZ
; public: virtual class std::<class std::<char,struct std::<char>,class std::<char>>,class std::<class std::<char,struct std::<char>,class std::<char>>>> __cdecl uhd::rfnoc::mb_controller::get_gpio_src(class std::<char,struct std::<char>,class std::<char>> const &__ptr64 )__ptr64 
?get_gpio_src@mb_controller@rfnoc@uhd@@UEAA?AV?$vector@V?$basic_string@DU?$char_traits@D@std@@V?$allocator@D@2@@std@@V?$allocator@V?$basic_string@DU?$char_traits@D@std@@V?$allocator@D@2@@std@@@2@@std@@AEBV?$basic_string@DU?$char_traits@D@std@@V?$allocator@D@2@@5@@Z
; public: virtual class std::<class std::<char,struct std::<char>,class std::<char>>,class std::<class std::<char,struct std::<char>,class std::<char>>>> __cdecl uhd::rfnoc::mb_controller::get_gpio_srcs(class std::<char,struct std::<char>,class std::<char>> const &__ptr64 )const __ptr64 
?get_gpio_srcs@mb_controller@rfnoc@uhd@@UEBA?AV?$vector@V?$basic_string@DU?$char_traits@D@std@@V?$allocator@D@2@@std@@V?$allocator@V?$basic_string@DU?$char_traits@D@std@@V?$allocator@D@2@@std@@@2@@std@@AEBV?$basic_string@DU?$char_traits@D@std@@V?$allocator@D@2@@5@@Z
; public: class uhd::rfnoc::chdr::chdr_header __cdecl uhd::utils::chdr::chdr_packet::get_header(void)const __ptr64 
?get_header@chdr_packet@chdr@utils@uhd@@QEBA?AVchdr_header@2rfnoc@4@XZ
; public: class uhd::rfnoc::chdr::mgmt_hop_t const &__ptr64 __cdecl uhd::rfnoc::chdr::mgmt_payload::get_hop(unsigned __int64)const __ptr64 
?get_hop@mgmt_payload@chdr@rfnoc@uhd@@QEBAAEBVmgmt_hop_t@234@_K@Z
; public: class std::<char,struct std::<char>,class std::<char>> const &__ptr64 __cdecl uhd::rfnoc::property_base_t::get_id(void)const __ptr64 
?get_id@property_base_t@rfnoc@uhd@@QEBAAEBV?$basic_string@DU?$char_traits@D@std@@V?$allocator@D@2@@std@@XZ
; class std::<struct uhd::transport::if_addrs_t,class std::<struct uhd::transport::if_addrs_t>> __cdecl uhd::transport::get_if_addrs(void)
?get_if_addrs@transport@uhd@@YA?AV?$vector@Uif_addrs_t@transport@uhd@@V?$allocator@Uif_addrs_t@transport@uhd@@@std@@@std@@XZ
; public: double __cdecl uhd::usrp::fe_connection_t::get_if_freq(void)const __ptr64 
?get_if_freq@fe_connection_t@usrp@uhd@@QEBANXZ
; protected: class std::<class uhd::usrp::dboard_iface> __cdecl uhd::usrp::dboard_base::get_iface(void)__ptr64 
?get_iface@dboard_base@usrp@uhd@@IEAA?AV?$shared_ptr@Vdboard_iface@usrp@uhd@@@std@@XZ
; class std::<char,struct std::<char>,class std::<char>> __cdecl uhd::get_images_dir(class std::<char,struct std::<char>,class std::<char>> const &__ptr64 )
?get_images_dir@uhd@@YA?AV?$basic_string@DU?$char_traits@D@std@@V?$allocator@D@2@@std@@AEBV23@@Z
; public: unsigned int __cdecl uhd::niusrprio::niriok_proxy::get_interface_num(void)__ptr64 
?get_interface_num@niriok_proxy@niusrprio@uhd@@QEAAIXZ
; public: class std::<class uhd::niusrprio::niriok_proxy> __cdecl uhd::niusrprio::niusrprio_session::get_kernel_proxy(void)__ptr64 
?get_kernel_proxy@niusrprio_session@niusrprio@uhd@@QEAA?AV?$shared_ptr@Vniriok_proxy@niusrprio@uhd@@@std@@XZ
; public: unsigned __int64 __cdecl uhd::rfnoc::chdr::ctrl_payload::get_length(void)const __ptr64 
?get_length@ctrl_payload@chdr@rfnoc@uhd@@QEBA_KXZ
; public: unsigned __int64 __cdecl uhd::rfnoc::chdr::mgmt_payload::get_length(void)const __ptr64 
?get_length@mgmt_payload@chdr@rfnoc@uhd@@QEBA_KXZ
; public: unsigned __int64 __cdecl uhd::rfnoc::chdr::strc_payload::get_length(void)const __ptr64 
?get_length@strc_payload@chdr@rfnoc@uhd@@QEBA_KXZ
; public: unsigned __int64 __cdecl uhd::rfnoc::chdr::strs_payload::get_length(void)const __ptr64 
?get_length@strs_payload@chdr@rfnoc@uhd@@QEBA_KXZ
; class std::<char,struct std::<char>,class std::<char>> __cdecl uhd::get_lib_path(void)
?get_lib_path@uhd@@YA?AV?$basic_string@DU?$char_traits@D@std@@V?$allocator@D@2@@std@@XZ
; public: class std::<char,struct std::<char>,class std::<char>> __cdecl uhd::rfnoc::block_id_t::get_local(void)const __ptr64 
?get_local@block_id_t@rfnoc@uhd@@QEBA?AV?$basic_string@DU?$char_traits@D@std@@V?$allocator@D@2@@std@@XZ
; private: bool &__ptr64 __cdecl boost::serialization::singleton_module::get_lock(void)__ptr64 
?get_lock@singleton_module@serialization@boost@@AEAAAEA_NXZ
; public: unsigned __int64 __cdecl uhd::rfnoc::noc_block_base::get_max_payload_size(struct uhd::rfnoc::res_source_info const &__ptr64 ,bool)__ptr64 
?get_max_payload_size@noc_block_base@rfnoc@uhd@@QEAA_KAEBUres_source_info@23@_N@Z
; public: class std::<class uhd::rfnoc::mb_controller> __cdecl uhd::rfnoc::noc_block_base::get_mb_controller(void)__ptr64 
?get_mb_controller@noc_block_base@rfnoc@uhd@@QEAA?AV?$shared_ptr@Vmb_controller@rfnoc@uhd@@@std@@XZ
; public: class std::<unsigned __int64,class std::<unsigned __int64>> const &__ptr64 __cdecl uhd::utils::chdr::chdr_packet::get_metadata(void)const __ptr64 
?get_metadata@chdr_packet@chdr@utils@uhd@@QEBAAEBV?$vector@_KV?$allocator@_K@std@@@std@@XZ
; struct uhd::rfnoc::mock_block_container __cdecl uhd::rfnoc::get_mock_block(unsigned int,unsigned __int64,unsigned __int64,class uhd::device_addr_t const &__ptr64 ,unsigned __int64,unsigned short,class std::<class uhd::rfnoc::mock_reg_iface_t>,class std::<class uhd::rfnoc::mb_controller>)
?get_mock_block@rfnoc@uhd@@YA?AUmock_block_container@12@I_K0AEBVdevice_addr_t@2@0GV?$shared_ptr@Vmock_reg_iface_t@rfnoc@uhd@@@std@@V?$shared_ptr@Vmb_controller@rfnoc@uhd@@@6@@Z
; class std::<class boost::filesystem::path,class std::<class boost::filesystem::path>> __cdecl uhd::get_module_paths(void)
?get_module_paths@uhd@@YA?AV?$vector@Vpath@filesystem@boost@@V?$allocator@Vpath@filesystem@boost@@@std@@@std@@XZ
; public: unsigned __int64 __cdecl uhd::rfnoc::noc_block_base::get_mtu(struct uhd::rfnoc::res_source_info const &__ptr64 )__ptr64 
?get_mtu@noc_block_base@rfnoc@uhd@@QEAA_KAEBUres_source_info@23@@Z
; protected: class uhd::rfnoc::property_base_t *__ptr64 __cdecl uhd::rfnoc::noc_block_base::get_mtu_prop_ref(struct uhd::rfnoc::res_source_info const &__ptr64 )__ptr64 
?get_mtu_prop_ref@noc_block_base@rfnoc@uhd@@IEAAPEAVproperty_base_t@23@AEBUres_source_info@23@@Z
; public: static class boost::archive::detail::extra_detail::<class boost::archive::text_iarchive> &__ptr64 __cdecl boost::serialization::<class boost::archive::detail::extra_detail::<class boost::archive::text_iarchive>>::get_mutable_instance(void)
?get_mutable_instance@?$singleton@V?$map@Vtext_iarchive@archive@boost@@@extra_detail@detail@archive@boost@@@serialization@boost@@SAAEAV?$map@Vtext_iarchive@archive@boost@@@extra_detail@detail@archive@3@XZ
; public: static class boost::archive::detail::extra_detail::<class boost::archive::text_oarchive> &__ptr64 __cdecl boost::serialization::<class boost::archive::detail::extra_detail::<class boost::archive::text_oarchive>>::get_mutable_instance(void)
?get_mutable_instance@?$singleton@V?$map@Vtext_oarchive@archive@boost@@@extra_detail@detail@archive@boost@@@serialization@boost@@SAAEAV?$map@Vtext_oarchive@archive@boost@@@extra_detail@detail@archive@3@XZ
; public: static class std::<class boost::serialization::extended_type_info const *__ptr64,struct boost::serialization::detail::key_compare,class std::<class boost::serialization::extended_type_info const *__ptr64>> &__ptr64 __cdecl boost::serialization::<class std::<class boost::serialization::extended_type_info const *__ptr64,struct boost::serialization::detail::key_compare,class std::<class boost::serialization::extended_type_info const *__ptr64>>>::get_mutable_instance(void)
?get_mutable_instance@?$singleton@V?$multiset@PEBVextended_type_info@serialization@boost@@Ukey_compare@detail@23@V?$allocator@PEBVextended_type_info@serialization@boost@@@std@@@std@@@serialization@boost@@SAAEAV?$multiset@PEBVextended_type_info@serialization@boost@@Ukey_compare@detail@23@V?$allocator@PEBVextended_type_info@serialization@boost@@@std@@@std@@XZ
; public: static class std::<class boost::serialization::typeid_system::extended_type_info_typeid_0 const *__ptr64,struct boost::serialization::typeid_system::type_compare,class std::<class boost::serialization::typeid_system::extended_type_info_typeid_0 const *__ptr64>> &__ptr64 __cdecl boost::serialization::<class std::<class boost::serialization::typeid_system::extended_type_info_typeid_0 const *__ptr64,struct boost::serialization::typeid_system::type_compare,class std::<class boost::serialization::typeid_system::extended_type_info_typeid_0 const *__ptr64>>>::get_mutable_instance(void)
?get_mutable_instance@?$singleton@V?$multiset@PEBVextended_type_info_typeid_0@typeid_system@serialization@boost@@Utype_compare@234@V?$allocator@PEBVextended_type_info_typeid_0@typeid_system@serialization@boost@@@std@@@std@@@serialization@boost@@SAAEAV?$multiset@PEBVextended_type_info_typeid_0@typeid_system@serialization@boost@@Utype_compare@234@V?$allocator@PEBVextended_type_info_typeid_0@typeid_system@serialization@boost@@@std@@@std@@XZ
; public: virtual class std::<char,struct std::<char>,class std::<char>> const &__ptr64 __cdecl uhd::soft_regmap_db_t::get_name(void)const __ptr64 
?get_name@soft_regmap_db_t@uhd@@UEBAAEBV?$basic_string@DU?$char_traits@D@std@@V?$allocator@D@2@@std@@XZ
; public: virtual class std::<char,struct std::<char>,class std::<char>> const &__ptr64 __cdecl uhd::soft_regmap_t::get_name(void)const __ptr64 
?get_name@soft_regmap_t@uhd@@UEBAAEBV?$basic_string@DU?$char_traits@D@std@@V?$allocator@D@2@@std@@XZ
; public: unsigned int __cdecl uhd::rfnoc::noc_block_base::get_noc_id(void)const __ptr64 
?get_noc_id@noc_block_base@rfnoc@uhd@@QEBAIXZ
; public: unsigned __int64 __cdecl uhd::rfnoc::chdr::mgmt_payload::get_num_hops(void)const __ptr64 
?get_num_hops@mgmt_payload@chdr@rfnoc@uhd@@QEBA_KXZ
; public: virtual unsigned __int64 __cdecl uhd::rfnoc::noc_block_base::get_num_input_ports(void)const __ptr64 
?get_num_input_ports@noc_block_base@rfnoc@uhd@@UEBA_KXZ
; public: unsigned __int64 __cdecl uhd::rfnoc::chdr::mgmt_hop_t::get_num_ops(void)const __ptr64 
?get_num_ops@mgmt_hop_t@chdr@rfnoc@uhd@@QEBA_KXZ
; public: virtual unsigned __int64 __cdecl uhd::rfnoc::noc_block_base::get_num_output_ports(void)const __ptr64 
?get_num_output_ports@noc_block_base@rfnoc@uhd@@UEBA_KXZ
; public: unsigned __int64 __cdecl uhd::rfnoc::mb_controller::get_num_timekeepers(void)const __ptr64 
?get_num_timekeepers@mb_controller@rfnoc@uhd@@QEBA_KXZ
; public: class uhd::rfnoc::chdr::mgmt_op_t const &__ptr64 __cdecl uhd::rfnoc::chdr::mgmt_hop_t::get_op(unsigned __int64)const __ptr64 
?get_op@mgmt_hop_t@chdr@rfnoc@uhd@@QEBAAEBVmgmt_op_t@234@_K@Z
; public: enum uhd::rfnoc::chdr::mgmt_op_t::op_code_t __cdecl uhd::rfnoc::chdr::mgmt_op_t::get_op_code(void)const __ptr64 
?get_op_code@mgmt_op_t@chdr@rfnoc@uhd@@QEBA?AW4op_code_t@1234@XZ
; public: unsigned __int64 __cdecl uhd::rfnoc::chdr::mgmt_op_t::get_op_payload(void)const __ptr64 
?get_op_payload@mgmt_op_t@chdr@rfnoc@uhd@@QEBA_KXZ
; public: unsigned char __cdecl uhd::rfnoc::chdr::mgmt_op_t::get_ops_pending(void)const __ptr64 
?get_ops_pending@mgmt_op_t@chdr@rfnoc@uhd@@QEBAEXZ
; public: unsigned __int64 __cdecl uhd::utils::chdr::chdr_packet::get_packet_len(void)const __ptr64 
?get_packet_len@chdr_packet@chdr@utils@uhd@@QEBA_KXZ
; public: class std::<unsigned char,class std::<unsigned char>> const &__ptr64 __cdecl uhd::utils::chdr::chdr_packet::get_payload_bytes(void)const __ptr64 
?get_payload_bytes@chdr_packet@chdr@utils@uhd@@QEBAAEBV?$vector@EV?$allocator@E@std@@@std@@XZ
; class std::<char,struct std::<char>,class std::<char>> __cdecl uhd::get_pkg_data_path(void)
?get_pkg_data_path@uhd@@YA?AV?$basic_string@DU?$char_traits@D@std@@V?$allocator@D@2@@std@@XZ
; class std::<char,struct std::<char>,class std::<char>> __cdecl uhd::get_pkg_path(void)
?get_pkg_path@uhd@@YA?AV?$basic_string@DU?$char_traits@D@std@@V?$allocator@D@2@@std@@XZ
; public: virtual unsigned short __cdecl uhd::rfnoc::mock_reg_iface_t::get_port_num(void)const __ptr64 
?get_port_num@mock_reg_iface_t@rfnoc@uhd@@UEBAGXZ
; public: class std::<class std::<char,struct std::<char>,class std::<char>>,class std::<class std::<char,struct std::<char>,class std::<char>>>> __cdecl uhd::rfnoc::node_t::get_property_ids(void)const __ptr64 
?get_property_ids@node_t@rfnoc@uhd@@QEBA?AV?$vector@V?$basic_string@DU?$char_traits@D@std@@V?$allocator@D@2@@std@@V?$allocator@V?$basic_string@DU?$char_traits@D@std@@V?$allocator@D@2@@std@@@2@@std@@XZ
; public: unsigned short __cdecl uhd::rfnoc::chdr::mgmt_payload::get_proto_ver(void)const __ptr64 
?get_proto_ver@mgmt_payload@chdr@rfnoc@uhd@@QEBAGXZ
; public: double __cdecl uhd::time_spec_t::get_real_secs(void)const __ptr64 
?get_real_secs@time_spec_t@uhd@@QEBANXZ
; public: static class std::<char,struct std::<char>,class std::<char>> __cdecl uhd::image_loader::get_recovery_instructions(class std::<char,struct std::<char>,class std::<char>> const &__ptr64 )
?get_recovery_instructions@image_loader@uhd@@SA?AV?$basic_string@DU?$char_traits@D@std@@V?$allocator@D@2@@std@@AEBV34@@Z
; public: class std::<char,struct std::<char>,class std::<char>> __cdecl uhd::niusrprio::niusrprio_session::get_resource(void)const __ptr64 
?get_resource@niusrprio_session@niusrprio@uhd@@QEBA?AV?$basic_string@DU?$char_traits@D@std@@V?$allocator@D@2@@std@@XZ
; public: class uhd::niusrprio::nirio_quirks &__ptr64 __cdecl uhd::niusrprio::niriok_proxy::get_rio_quirks(void)__ptr64 
?get_rio_quirks@niriok_proxy@niusrprio@uhd@@QEAAAEAVnirio_quirks@23@XZ
; public: double __cdecl uhd::analog_filter_lp::get_rolloff(void)__ptr64 
?get_rolloff@analog_filter_lp@uhd@@QEAANXZ
; public: virtual class std::<char,struct std::<char>,class std::<char>> __cdecl uhd::rfnoc::rf_control::antenna_radio_control_mixin::get_rx_antenna(unsigned __int64)const __ptr64 
?get_rx_antenna@antenna_radio_control_mixin@rf_control@rfnoc@uhd@@UEBA?AV?$basic_string@DU?$char_traits@D@std@@V?$allocator@D@2@@std@@_K@Z
; public: virtual class std::<class std::<char,struct std::<char>,class std::<char>>,class std::<class std::<char,struct std::<char>,class std::<char>>>> __cdecl uhd::rfnoc::rf_control::antenna_radio_control_mixin::get_rx_antennas(unsigned __int64)const __ptr64 
?get_rx_antennas@antenna_radio_control_mixin@rf_control@rfnoc@uhd@@UEBA?AV?$vector@V?$basic_string@DU?$char_traits@D@std@@V?$allocator@D@2@@std@@V?$allocator@V?$basic_string@DU?$char_traits@D@std@@V?$allocator@D@2@@std@@@2@@std@@_K@Z
; protected: struct uhd::usrp::dboard_eeprom_t __cdecl uhd::usrp::dboard_base::get_rx_eeprom(void)__ptr64 
?get_rx_eeprom@dboard_base@usrp@uhd@@IEAA?AUdboard_eeprom_t@23@XZ
; public: double __cdecl uhd::usrp::multi_usrp::get_rx_gain(unsigned __int64)__ptr64 
?get_rx_gain@multi_usrp@usrp@uhd@@QEAAN_K@Z
; public: virtual double __cdecl uhd::rfnoc::rf_control::nameless_gain_mixin::get_rx_gain(unsigned __int64)__ptr64 
?get_rx_gain@nameless_gain_mixin@rf_control@rfnoc@uhd@@UEAAN_K@Z
; public: struct uhd::meta_range_t __cdecl uhd::usrp::multi_usrp::get_rx_gain_range(unsigned __int64)__ptr64 
?get_rx_gain_range@multi_usrp@usrp@uhd@@QEAA?AUmeta_range_t@3@_K@Z
; public: virtual struct uhd::meta_range_t __cdecl uhd::rfnoc::rf_control::nameless_gain_mixin::get_rx_gain_range(unsigned __int64)const __ptr64 
?get_rx_gain_range@nameless_gain_mixin@rf_control@rfnoc@uhd@@UEBA?AUmeta_range_t@4@_K@Z
; protected: class uhd::usrp::dboard_id_t __cdecl uhd::usrp::dboard_base::get_rx_id(void)__ptr64 
?get_rx_id@dboard_base@usrp@uhd@@IEAA?AVdboard_id_t@23@XZ
; protected: class std::<class uhd::property_tree> __cdecl uhd::usrp::dboard_base::get_rx_subtree(void)__ptr64 
?get_rx_subtree@dboard_base@usrp@uhd@@IEAA?AV?$shared_ptr@Vproperty_tree@uhd@@@std@@XZ
; public: enum uhd::usrp::fe_connection_t::sampling_t __cdecl uhd::usrp::fe_connection_t::get_sampling_mode(void)const __ptr64 
?get_sampling_mode@fe_connection_t@usrp@uhd@@QEBA?AW4sampling_t@123@XZ
; public: unsigned __int64 __cdecl uhd::rfnoc::chdr::mgmt_payload::get_size_bytes(void)const __ptr64 
?get_size_bytes@mgmt_payload@chdr@rfnoc@uhd@@QEBA_KXZ
; public: unsigned short __cdecl uhd::rfnoc::chdr::mgmt_payload::get_src_epid(void)const __ptr64 
?get_src_epid@mgmt_payload@chdr@rfnoc@uhd@@QEBAGXZ
; public: virtual unsigned short __cdecl uhd::rfnoc::mock_reg_iface_t::get_src_epid(void)const __ptr64 
?get_src_epid@mock_reg_iface_t@rfnoc@uhd@@UEBAGXZ
; public: struct uhd::rfnoc::res_source_info const &__ptr64 __cdecl uhd::rfnoc::property_base_t::get_src_info(void)const __ptr64 
?get_src_info@property_base_t@rfnoc@uhd@@QEBAAEBUres_source_info@23@XZ
; protected: class std::<char,struct std::<char>,class std::<char>> __cdecl uhd::usrp::dboard_base::get_subdev_name(void)__ptr64 
?get_subdev_name@dboard_base@usrp@uhd@@IEAA?AV?$basic_string@DU?$char_traits@D@std@@V?$allocator@D@2@@std@@XZ
; public: long __cdecl uhd::time_spec_t::get_tick_count(double)const __ptr64 
?get_tick_count@time_spec_t@uhd@@QEBAJN@Z
; public: double __cdecl uhd::rfnoc::noc_block_base::get_tick_rate(void)const __ptr64 
?get_tick_rate@noc_block_base@rfnoc@uhd@@QEBANXZ
; public: double __cdecl uhd::rfnoc::mb_controller::timekeeper::get_tick_rate(void)__ptr64 
?get_tick_rate@timekeeper@mb_controller@rfnoc@uhd@@QEAANXZ
; public: virtual class uhd::time_spec_t __cdecl uhd::rfnoc::reg_iface_adapter::get_time(void)__ptr64 
?get_time@reg_iface_adapter@rfnoc@uhd@@UEAA?AVtime_spec_t@3@XZ
; public: class uhd::time_spec_t __cdecl uhd::rfnoc::mb_controller::timekeeper::get_time_last_pps(void)__ptr64 
?get_time_last_pps@timekeeper@mb_controller@rfnoc@uhd@@QEAA?AVtime_spec_t@4@XZ
; public: class uhd::time_spec_t __cdecl uhd::rfnoc::mb_controller::timekeeper::get_time_now(void)__ptr64 
?get_time_now@timekeeper@mb_controller@rfnoc@uhd@@QEAA?AVtime_spec_t@4@XZ
; public: class std::<class uhd::rfnoc::mb_controller::timekeeper> __cdecl uhd::rfnoc::mb_controller::get_timekeeper(unsigned __int64)const __ptr64 
?get_timekeeper@mb_controller@rfnoc@uhd@@QEBA?AV?$shared_ptr@Vtimekeeper@mb_controller@rfnoc@uhd@@@std@@_K@Z
; public: class boost::<unsigned __int64> __cdecl uhd::utils::chdr::chdr_packet::get_timestamp(void)const __ptr64 
?get_timestamp@chdr_packet@chdr@utils@uhd@@QEBA?AV?$optional@_K@boost@@XZ
; class std::<char,struct std::<char>,class std::<char>> __cdecl uhd::get_tmp_path(void)
?get_tmp_path@uhd@@YA?AV?$basic_string@DU?$char_traits@D@std@@V?$allocator@D@2@@std@@XZ
; public: class std::<class uhd::property_tree> __cdecl uhd::device::get_tree(void)const __ptr64 
?get_tree@device@uhd@@QEBA?AV?$shared_ptr@Vproperty_tree@uhd@@@std@@XZ
; public: class std::<class uhd::property_tree> &__ptr64 __cdecl uhd::rfnoc::noc_block_base::get_tree(void)__ptr64 
?get_tree@noc_block_base@rfnoc@uhd@@QEAAAEAV?$shared_ptr@Vproperty_tree@uhd@@@std@@XZ
; public: class std::<class uhd::property_tree> &__ptr64 __cdecl uhd::rfnoc::noc_block_base::get_tree(void)const __ptr64 
?get_tree@noc_block_base@rfnoc@uhd@@QEBAAEAV?$shared_ptr@Vproperty_tree@uhd@@@std@@XZ
; public: struct uhd::fs_path __cdecl uhd::rfnoc::block_id_t::get_tree_root(void)const __ptr64 
?get_tree_root@block_id_t@rfnoc@uhd@@QEBA?AUfs_path@3@XZ
; public: virtual class std::<char,struct std::<char>,class std::<char>> __cdecl uhd::rfnoc::rf_control::antenna_radio_control_mixin::get_tx_antenna(unsigned __int64)const __ptr64 
?get_tx_antenna@antenna_radio_control_mixin@rf_control@rfnoc@uhd@@UEBA?AV?$basic_string@DU?$char_traits@D@std@@V?$allocator@D@2@@std@@_K@Z
; public: virtual class std::<class std::<char,struct std::<char>,class std::<char>>,class std::<class std::<char,struct std::<char>,class std::<char>>>> __cdecl uhd::rfnoc::rf_control::antenna_radio_control_mixin::get_tx_antennas(unsigned __int64)const __ptr64 
?get_tx_antennas@antenna_radio_control_mixin@rf_control@rfnoc@uhd@@UEBA?AV?$vector@V?$basic_string@DU?$char_traits@D@std@@V?$allocator@D@2@@std@@V?$allocator@V?$basic_string@DU?$char_traits@D@std@@V?$allocator@D@2@@std@@@2@@std@@_K@Z
; protected: struct uhd::usrp::dboard_eeprom_t __cdecl uhd::usrp::dboard_base::get_tx_eeprom(void)__ptr64 
?get_tx_eeprom@dboard_base@usrp@uhd@@IEAA?AUdboard_eeprom_t@23@XZ
; public: double __cdecl uhd::usrp::multi_usrp::get_tx_gain(unsigned __int64)__ptr64 
?get_tx_gain@multi_usrp@usrp@uhd@@QEAAN_K@Z
; public: virtual double __cdecl uhd::rfnoc::rf_control::nameless_gain_mixin::get_tx_gain(unsigned __int64)__ptr64 
?get_tx_gain@nameless_gain_mixin@rf_control@rfnoc@uhd@@UEAAN_K@Z
; public: struct uhd::meta_range_t __cdecl uhd::usrp::multi_usrp::get_tx_gain_range(unsigned __int64)__ptr64 
?get_tx_gain_range@multi_usrp@usrp@uhd@@QEAA?AUmeta_range_t@3@_K@Z
; public: virtual struct uhd::meta_range_t __cdecl uhd::rfnoc::rf_control::nameless_gain_mixin::get_tx_gain_range(unsigned __int64)const __ptr64 
?get_tx_gain_range@nameless_gain_mixin@rf_control@rfnoc@uhd@@UEBA?AUmeta_range_t@4@_K@Z
; protected: class uhd::usrp::dboard_id_t __cdecl uhd::usrp::dboard_base::get_tx_id(void)__ptr64 
?get_tx_id@dboard_base@usrp@uhd@@IEAA?AVdboard_id_t@23@XZ
; protected: class std::<class uhd::property_tree> __cdecl uhd::usrp::dboard_base::get_tx_subtree(void)__ptr64 
?get_tx_subtree@dboard_base@usrp@uhd@@IEAA?AV?$shared_ptr@Vproperty_tree@uhd@@@std@@XZ
; public: enum uhd::filter_info_base::filter_type __cdecl uhd::filter_info_base::get_type(void)__ptr64 
?get_type@filter_info_base@uhd@@QEAA?AW4filter_type@12@XZ
; public: virtual class std::<char,struct std::<char>,class std::<char>> __cdecl uhd::rfnoc::noc_block_base::get_unique_id(void)const __ptr64 
?get_unique_id@noc_block_base@rfnoc@uhd@@UEBA?AV?$basic_string@DU?$char_traits@D@std@@V?$allocator@D@2@@std@@XZ
; public: virtual class std::<char,struct std::<char>,class std::<char>> __cdecl uhd::rfnoc::node_t::get_unique_id(void)const __ptr64 
?get_unique_id@node_t@rfnoc@uhd@@UEBA?AV?$basic_string@DU?$char_traits@D@std@@V?$allocator@D@2@@std@@XZ
; public: virtual int __cdecl uhd::niusrprio::niriok_proxy_impl_v1::get_version(enum uhd::niusrprio::nirio_version_t,unsigned int &__ptr64 ,unsigned int &__ptr64 ,unsigned int &__ptr64 ,char &__ptr64 ,unsigned int &__ptr64 )__ptr64 
?get_version@niriok_proxy_impl_v1@niusrprio@uhd@@UEAAHW4nirio_version_t@23@AEAI11AEAD1@Z
; public: virtual int __cdecl uhd::niusrprio::niriok_proxy_impl_v2::get_version(enum uhd::niusrprio::nirio_version_t,unsigned int &__ptr64 ,unsigned int &__ptr64 ,unsigned int &__ptr64 ,char &__ptr64 ,unsigned int &__ptr64 )__ptr64 
?get_version@niriok_proxy_impl_v2@niusrprio@uhd@@UEAAHW4nirio_version_t@23@AEAI11AEAD1@Z
; class std::<char,struct std::<char>,class std::<char>> __cdecl uhd::get_version_string(void)
?get_version_string@uhd@@YA?AV?$basic_string@DU?$char_traits@D@std@@V?$allocator@D@2@@std@@XZ
; public: virtual int __cdecl uhd::niusrprio::niriok_proxy_impl_v1::grant_fifo(unsigned int,unsigned int)__ptr64 
?grant_fifo@niriok_proxy_impl_v1@niusrprio@uhd@@UEAAHII@Z
; public: virtual int __cdecl uhd::niusrprio::niriok_proxy_impl_v2::grant_fifo(unsigned int,unsigned int)__ptr64 
?grant_fifo@niriok_proxy_impl_v2@niusrprio@uhd@@UEAAHII@Z
; public: static bool __cdecl uhd::usrp::cal::database::has_cal_data(class std::<char,struct std::<char>,class std::<char>> const &__ptr64 ,class std::<char,struct std::<char>,class std::<char>> const &__ptr64 ,enum uhd::usrp::cal::source)
?has_cal_data@database@cal@usrp@uhd@@SA_NAEBV?$basic_string@DU?$char_traits@D@std@@V?$allocator@D@2@@std@@0W4source@234@@Z
; public: bool __cdecl uhd::<class std::<char,struct std::<char>,class std::<char>>,class std::<char,struct std::<char>,class std::<char>>>::has_key(class std::<char,struct std::<char>,class std::<char>> const &__ptr64 )const __ptr64 
?has_key@?$dict@V?$basic_string@DU?$char_traits@D@std@@V?$allocator@D@2@@std@@V12@@uhd@@QEBA_NAEBV?$basic_string@DU?$char_traits@D@std@@V?$allocator@D@2@@std@@@Z
; public: virtual bool __cdecl uhd::usrp::dboard_iface::has_set_fe_connection(enum uhd::usrp::dboard_iface::unit_t)__ptr64 
?has_set_fe_connection@dboard_iface@usrp@uhd@@UEAA_NW4unit_t@123@@Z
; public: bool __cdecl uhd::rfnoc::chdr::ctrl_payload::has_timestamp(void)const __ptr64 
?has_timestamp@ctrl_payload@chdr@rfnoc@uhd@@QEBA_NXZ
; public: class std::<char,struct std::<char>,class std::<char>> __cdecl uhd::rfnoc::chdr::mgmt_payload::hops_to_string(void)const __ptr64 
?hops_to_string@mgmt_payload@chdr@rfnoc@uhd@@QEBA?AV?$basic_string@DU?$char_traits@D@std@@V?$allocator@D@2@@std@@XZ
; void __cdecl uhd::transport::vrt::if_hdr_pack_be(unsigned int *__ptr64,struct uhd::transport::vrt::if_packet_info_t &__ptr64 )
?if_hdr_pack_be@vrt@transport@uhd@@YAXPEAIAEAUif_packet_info_t@123@@Z
; void __cdecl uhd::transport::vrt::if_hdr_pack_le(unsigned int *__ptr64,struct uhd::transport::vrt::if_packet_info_t &__ptr64 )
?if_hdr_pack_le@vrt@transport@uhd@@YAXPEAIAEAUif_packet_info_t@123@@Z
; void __cdecl uhd::transport::vrt::if_hdr_unpack_be(unsigned int const *__ptr64,struct uhd::transport::vrt::if_packet_info_t &__ptr64 )
?if_hdr_unpack_be@vrt@transport@uhd@@YAXPEBIAEAUif_packet_info_t@123@@Z
; void __cdecl uhd::transport::vrt::if_hdr_unpack_le(unsigned int const *__ptr64,struct uhd::transport::vrt::if_packet_info_t &__ptr64 )
?if_hdr_unpack_le@vrt@transport@uhd@@YAXPEBIAEAUif_packet_info_t@123@@Z
; public: virtual void __cdecl uhd::rfnoc::mb_controller::init(void)__ptr64 
?init@mb_controller@rfnoc@uhd@@UEAAXXZ
; private: void __cdecl uhd::rfnoc::node_t::init_props(void)__ptr64 
?init_props@node_t@rfnoc@uhd@@AEAAXXZ
; public: virtual void __cdecl uhd::<unsigned int,0x1ULL,0x0ULL>::initialize(class uhd::wb_iface &__ptr64 ,bool)__ptr64 
?initialize@?$soft_register_t@I$00$0A@@uhd@@UEAAXAEAVwb_iface@2@_N@Z
; public: virtual void __cdecl uhd::<unsigned int,0x0ULL,0x1ULL>::initialize(class uhd::wb_iface &__ptr64 ,bool)__ptr64 
?initialize@?$soft_register_t@I$0A@$00@uhd@@UEAAXAEAVwb_iface@2@_N@Z
; public: virtual void __cdecl uhd::<unsigned __int64,0x1ULL,0x0ULL>::initialize(class uhd::wb_iface &__ptr64 ,bool)__ptr64 
?initialize@?$soft_register_t@_K$00$0A@@uhd@@UEAAXAEAVwb_iface@2@_N@Z
; public: virtual void __cdecl uhd::usrp::dboard_base::initialize(void)__ptr64 
?initialize@dboard_base@usrp@uhd@@UEAAXXZ
; public: void __cdecl uhd::soft_regmap_t::initialize(class uhd::wb_iface &__ptr64 ,bool)__ptr64 
?initialize@soft_regmap_t@uhd@@QEAAXAEAVwb_iface@2@_N@Z
; private: class uhd::rfnoc::property_base_t *__ptr64 __cdecl uhd::rfnoc::node_t::inject_edge_property(class uhd::rfnoc::property_base_t *__ptr64,struct uhd::rfnoc::res_source_info)__ptr64 
?inject_edge_property@node_t@rfnoc@uhd@@AEAAPEAVproperty_base_t@23@PEAV423@Ures_source_info@23@@Z
; public: class std::<class std::<struct std::<struct uhd::usrp::subdev_spec_pair_t>>> __cdecl std::<struct uhd::usrp::subdev_spec_pair_t,class std::<struct uhd::usrp::subdev_spec_pair_t>>::insert(class std::<class std::<struct std::<struct uhd::usrp::subdev_spec_pair_t>>>,,struct uhd::usrp::subdev_spec_pair_t *__ptr64 const)__ptr64 
?insert@?$vector@Usubdev_spec_pair_t@usrp@uhd@@V?$allocator@Usubdev_spec_pair_t@usrp@uhd@@@std@@@std@@QEAA?AV?$_Vector_iterator@V?$_Vector_val@U?$_Simple_types@Usubdev_spec_pair_t@usrp@uhd@@@std@@@std@@@2@V?$_Vector_const_iterator@V?$_Vector_val@U?$_Simple_types@Usubdev_spec_pair_t@usrp@uhd@@@std@@@std@@@2@$$QEAUsubdev_spec_pair_t@usrp@uhd@@@Z
; public: class std::<class std::<struct std::<struct uhd::usrp::subdev_spec_pair_t>>> __cdecl std::<struct uhd::usrp::subdev_spec_pair_t,class std::<struct uhd::usrp::subdev_spec_pair_t>>::insert(class std::<class std::<struct std::<struct uhd::usrp::subdev_spec_pair_t>>>,struct uhd::usrp::subdev_spec_pair_t const &__ptr64 )__ptr64 
?insert@?$vector@Usubdev_spec_pair_t@usrp@uhd@@V?$allocator@Usubdev_spec_pair_t@usrp@uhd@@@std@@@std@@QEAA?AV?$_Vector_iterator@V?$_Vector_val@U?$_Simple_types@Usubdev_spec_pair_t@usrp@uhd@@@std@@@std@@@2@V?$_Vector_const_iterator@V?$_Vector_val@U?$_Simple_types@Usubdev_spec_pair_t@usrp@uhd@@@std@@@std@@@2@AEBUsubdev_spec_pair_t@usrp@uhd@@@Z
; public: class std::<class std::<struct std::<struct uhd::usrp::subdev_spec_pair_t>>> __cdecl std::<struct uhd::usrp::subdev_spec_pair_t,class std::<struct uhd::usrp::subdev_spec_pair_t>>::insert(class std::<class std::<struct std::<struct uhd::usrp::subdev_spec_pair_t>>>,class std::<struct uhd::usrp::subdev_spec_pair_t>)__ptr64 
?insert@?$vector@Usubdev_spec_pair_t@usrp@uhd@@V?$allocator@Usubdev_spec_pair_t@usrp@uhd@@@std@@@std@@QEAA?AV?$_Vector_iterator@V?$_Vector_val@U?$_Simple_types@Usubdev_spec_pair_t@usrp@uhd@@@std@@@std@@@2@V?$_Vector_const_iterator@V?$_Vector_val@U?$_Simple_types@Usubdev_spec_pair_t@usrp@uhd@@@std@@@std@@@2@V?$initializer_list@Usubdev_spec_pair_t@usrp@uhd@@@2@@Z
; public: class std::<class std::<struct std::<struct uhd::usrp::subdev_spec_pair_t>>> __cdecl std::<struct uhd::usrp::subdev_spec_pair_t,class std::<struct uhd::usrp::subdev_spec_pair_t>>::insert(class std::<class std::<struct std::<struct uhd::usrp::subdev_spec_pair_t>>>,unsigned __int64,struct uhd::usrp::subdev_spec_pair_t const &__ptr64 )__ptr64 
?insert@?$vector@Usubdev_spec_pair_t@usrp@uhd@@V?$allocator@Usubdev_spec_pair_t@usrp@uhd@@@std@@@std@@QEAA?AV?$_Vector_iterator@V?$_Vector_val@U?$_Simple_types@Usubdev_spec_pair_t@usrp@uhd@@@std@@@std@@@2@V?$_Vector_const_iterator@V?$_Vector_val@U?$_Simple_types@Usubdev_spec_pair_t@usrp@uhd@@@std@@@std@@@2@_KAEBUsubdev_spec_pair_t@usrp@uhd@@@Z
; public: class std::<class std::<struct std::<class uhd::range_t>>> __cdecl std::<class uhd::range_t,class std::<class uhd::range_t>>::insert(class std::<class std::<struct std::<class uhd::range_t>>>,,class uhd::range_t *__ptr64 const)__ptr64 
?insert@?$vector@Vrange_t@uhd@@V?$allocator@Vrange_t@uhd@@@std@@@std@@QEAA?AV?$_Vector_iterator@V?$_Vector_val@U?$_Simple_types@Vrange_t@uhd@@@std@@@std@@@2@V?$_Vector_const_iterator@V?$_Vector_val@U?$_Simple_types@Vrange_t@uhd@@@std@@@std@@@2@$$QEAVrange_t@uhd@@@Z
; public: class std::<class std::<struct std::<class uhd::range_t>>> __cdecl std::<class uhd::range_t,class std::<class uhd::range_t>>::insert(class std::<class std::<struct std::<class uhd::range_t>>>,class uhd::range_t const &__ptr64 )__ptr64 
?insert@?$vector@Vrange_t@uhd@@V?$allocator@Vrange_t@uhd@@@std@@@std@@QEAA?AV?$_Vector_iterator@V?$_Vector_val@U?$_Simple_types@Vrange_t@uhd@@@std@@@std@@@2@V?$_Vector_const_iterator@V?$_Vector_val@U?$_Simple_types@Vrange_t@uhd@@@std@@@std@@@2@AEBVrange_t@uhd@@@Z
; public: class std::<class std::<struct std::<class uhd::range_t>>> __cdecl std::<class uhd::range_t,class std::<class uhd::range_t>>::insert(class std::<class std::<struct std::<class uhd::range_t>>>,class std::<class uhd::range_t>)__ptr64 
?insert@?$vector@Vrange_t@uhd@@V?$allocator@Vrange_t@uhd@@@std@@@std@@QEAA?AV?$_Vector_iterator@V?$_Vector_val@U?$_Simple_types@Vrange_t@uhd@@@std@@@std@@@2@V?$_Vector_const_iterator@V?$_Vector_val@U?$_Simple_types@Vrange_t@uhd@@@std@@@std@@@2@V?$initializer_list@Vrange_t@uhd@@@2@@Z
; public: class std::<class std::<struct std::<class uhd::range_t>>> __cdecl std::<class uhd::range_t,class std::<class uhd::range_t>>::insert(class std::<class std::<struct std::<class uhd::range_t>>>,unsigned __int64,class uhd::range_t const &__ptr64 )__ptr64 
?insert@?$vector@Vrange_t@uhd@@V?$allocator@Vrange_t@uhd@@@std@@@std@@QEAA?AV?$_Vector_iterator@V?$_Vector_val@U?$_Simple_types@Vrange_t@uhd@@@std@@@std@@@2@V?$_Vector_const_iterator@V?$_Vector_val@U?$_Simple_types@Vrange_t@uhd@@@std@@@std@@@2@_KAEBVrange_t@uhd@@@Z
; class std::<char,struct std::<char>,class std::<char>> const __cdecl uhd::build_info::install_prefix(void)
?install_prefix@build_info@uhd@@YA?BV?$basic_string@DU?$char_traits@D@std@@V?$allocator@D@2@@std@@XZ
; public: virtual bool __cdecl uhd::filter_info_base::is_bypassed(void)__ptr64 
?is_bypassed@filter_info_base@uhd@@UEAA_NXZ
; public: static bool __cdecl boost::serialization::<class boost::archive::detail::extra_detail::<class boost::archive::text_iarchive>>::is_destroyed(void)
?is_destroyed@?$singleton@V?$map@Vtext_iarchive@archive@boost@@@extra_detail@detail@archive@boost@@@serialization@boost@@SA_NXZ
; public: static bool __cdecl boost::serialization::<class boost::archive::detail::extra_detail::<class boost::archive::text_oarchive>>::is_destroyed(void)
?is_destroyed@?$singleton@V?$map@Vtext_oarchive@archive@boost@@@extra_detail@detail@archive@boost@@@serialization@boost@@SA_NXZ
; public: static bool __cdecl boost::serialization::<class std::<class boost::serialization::extended_type_info const *__ptr64,struct boost::serialization::detail::key_compare,class std::<class boost::serialization::extended_type_info const *__ptr64>>>::is_destroyed(void)
?is_destroyed@?$singleton@V?$multiset@PEBVextended_type_info@serialization@boost@@Ukey_compare@detail@23@V?$allocator@PEBVextended_type_info@serialization@boost@@@std@@@std@@@serialization@boost@@SA_NXZ
; public: static bool __cdecl boost::serialization::<class std::<class boost::serialization::typeid_system::extended_type_info_typeid_0 const *__ptr64,struct boost::serialization::typeid_system::type_compare,class std::<class boost::serialization::typeid_system::extended_type_info_typeid_0 const *__ptr64>>>::is_destroyed(void)
?is_destroyed@?$singleton@V?$multiset@PEBVextended_type_info_typeid_0@typeid_system@serialization@boost@@Utype_compare@234@V?$allocator@PEBVextended_type_info_typeid_0@typeid_system@serialization@boost@@@std@@@std@@@serialization@boost@@SA_NXZ
; public: bool __cdecl uhd::rfnoc::graph_edge_t::is_equal(struct uhd::rfnoc::graph_edge_t const &__ptr64 ,bool)const __ptr64 
?is_equal@graph_edge_t@rfnoc@uhd@@QEBA_NAEBU123@_N@Z
; public: bool __cdecl uhd::usrp::fe_connection_t::is_i_inverted(void)const __ptr64 
?is_i_inverted@fe_connection_t@usrp@uhd@@QEBA_NXZ
; public: bool __cdecl uhd::usrp::fe_connection_t::is_iq_swapped(void)const __ptr64 
?is_iq_swapped@fe_connection_t@usrp@uhd@@QEBA_NXZ
; public: bool __cdecl boost::serialization::singleton_module::is_locked(void)__ptr64 
?is_locked@singleton_module@serialization@boost@@QEAA_NXZ
; public: bool __cdecl uhd::usrp::fe_connection_t::is_q_inverted(void)const __ptr64 
?is_q_inverted@fe_connection_t@usrp@uhd@@QEBA_NXZ
; public: virtual bool __cdecl uhd::<unsigned int,0x1ULL,0x0ULL>::is_readable(void)__ptr64 
?is_readable@?$soft_register_t@I$00$0A@@uhd@@UEAA_NXZ
; public: virtual bool __cdecl uhd::<unsigned int,0x0ULL,0x1ULL>::is_readable(void)__ptr64 
?is_readable@?$soft_register_t@I$0A@$00@uhd@@UEAA_NXZ
; public: virtual bool __cdecl uhd::<unsigned __int64,0x1ULL,0x0ULL>::is_readable(void)__ptr64 
?is_readable@?$soft_register_t@_K$00$0A@@uhd@@UEAA_NXZ
; public: static bool __cdecl uhd::rfnoc::block_id_t::is_valid_block_id(class std::<char,struct std::<char>,class std::<char>> const &__ptr64 )
?is_valid_block_id@block_id_t@rfnoc@uhd@@SA_NAEBV?$basic_string@DU?$char_traits@D@std@@V?$allocator@D@2@@std@@@Z
; public: static bool __cdecl uhd::rfnoc::block_id_t::is_valid_blockname(class std::<char,struct std::<char>,class std::<char>> const &__ptr64 )
?is_valid_blockname@block_id_t@rfnoc@uhd@@SA_NAEBV?$basic_string@DU?$char_traits@D@std@@V?$allocator@D@2@@std@@@Z
; public: virtual bool __cdecl uhd::<unsigned int,0x1ULL,0x0ULL>::is_writable(void)__ptr64 
?is_writable@?$soft_register_t@I$00$0A@@uhd@@UEAA_NXZ
; public: virtual bool __cdecl uhd::<unsigned int,0x0ULL,0x1ULL>::is_writable(void)__ptr64 
?is_writable@?$soft_register_t@I$0A@$00@uhd@@UEAA_NXZ
; public: virtual bool __cdecl uhd::<unsigned __int64,0x1ULL,0x0ULL>::is_writable(void)__ptr64 
?is_writable@?$soft_register_t@_K$00$0A@@uhd@@UEAA_NXZ
; public: class std::<class std::<char,struct std::<char>,class std::<char>>,class std::<class std::<char,struct std::<char>,class std::<char>>>> __cdecl uhd::<class std::<char,struct std::<char>,class std::<char>>,class std::<char,struct std::<char>,class std::<char>>>::keys(void)const __ptr64 
?keys@?$dict@V?$basic_string@DU?$char_traits@D@std@@V?$allocator@D@2@@std@@V12@@uhd@@QEBA?AV?$vector@V?$basic_string@DU?$char_traits@D@std@@V?$allocator@D@2@@std@@V?$allocator@V?$basic_string@DU?$char_traits@D@std@@V?$allocator@D@2@@std@@@2@@std@@XZ
; public: class std::<char,struct std::<char>,class std::<char>> __cdecl uhd::fs_path::leaf(void)const __ptr64 
?leaf@fs_path@uhd@@QEBA?AV?$basic_string@DU?$char_traits@D@std@@V?$allocator@D@2@@std@@XZ
; class std::<char,struct std::<char>,class std::<char>> const __cdecl uhd::build_info::libusb_version(void)
?libusb_version@build_info@uhd@@YA?BV?$basic_string@DU?$char_traits@D@std@@V?$allocator@D@2@@std@@XZ
; public: void __cdecl uhd::usrp::dboard_eeprom_t::load(class uhd::i2c_iface &__ptr64 ,unsigned char)__ptr64 
?load@dboard_eeprom_t@usrp@uhd@@QEAAXAEAVi2c_iface@3@E@Z
; public: static bool __cdecl uhd::image_loader::load(struct uhd::image_loader::image_loader_args_t const &__ptr64 )
?load@image_loader@uhd@@SA_NAEBUimage_loader_args_t@12@@Z
; public: virtual void __cdecl boost::archive::detail::<class boost::archive::text_iarchive,struct uhd::usrprio_rpc::usrprio_device_info>::load_object_data(class boost::archive::detail::basic_iarchive &__ptr64 ,void *__ptr64,unsigned int)const __ptr64 
?load_object_data@?$iserializer@Vtext_iarchive@archive@boost@@Uusrprio_device_info@usrprio_rpc@uhd@@@detail@archive@boost@@UEBAXAEAVbasic_iarchive@234@PEAXI@Z
; bool /private: bool &__ptr64 __cdecl boost::serialization::singleton_module::get_lock(void)__ptr64 /::'0x2ULL'::lock
?lock@?1??get_lock@singleton_module@serialization@boost@@AEAAAEA_NXZ@4_NA DATA
; public: void __cdecl boost::serialization::singleton_module::lock(void)__ptr64 
?lock@singleton_module@serialization@boost@@QEAAXXZ
; void __cdecl uhd::_log::log_fastpath(class std::<char,struct std::<char>,class std::<char>> const &__ptr64 )
?log_fastpath@_log@uhd@@YAXAEBV?$basic_string@DU?$char_traits@D@std@@V?$allocator@D@2@@std@@@Z
; public: virtual class uhd::soft_register_base &__ptr64 __cdecl uhd::soft_regmap_db_t::lookup(class std::<char,struct std::<char>,class std::<char>> const &__ptr64 )const __ptr64 
?lookup@soft_regmap_db_t@uhd@@UEBAAEAVsoft_register_base@2@AEBV?$basic_string@DU?$char_traits@D@std@@V?$allocator@D@2@@std@@@Z
; public: virtual class uhd::soft_register_base &__ptr64 __cdecl uhd::soft_regmap_t::lookup(class std::<char,struct std::<char>,class std::<char>> const &__ptr64 )const __ptr64 
?lookup@soft_regmap_t@uhd@@UEBAAEAVsoft_register_base@2@AEBV?$basic_string@DU?$char_traits@D@std@@V?$allocator@D@2@@std@@@Z
; class std::<char,struct std::<char>,class std::<char>> const __cdecl uhd::niusrprio::lookup_err_msg(int)
?lookup_err_msg@niusrprio@uhd@@YA?BV?$basic_string@DU?$char_traits@D@std@@V?$allocator@D@2@@std@@H@Z
; public: static class std::<struct uhd::rfnoc::action_info> __cdecl uhd::rfnoc::action_info::make(class std::<char,struct std::<char>,class std::<char>> const &__ptr64 ,class uhd::device_addr_t const &__ptr64 )
?make@action_info@rfnoc@uhd@@SA?AV?$shared_ptr@Uaction_info@rfnoc@uhd@@@std@@AEBV?$basic_string@DU?$char_traits@D@std@@V?$allocator@D@2@@5@AEBVdevice_addr_t@3@@Z
; public: static class std::<class b200_iface> __cdecl b200_iface::make(class std::<class uhd::transport::usb_control>)
?make@b200_iface@@SA?AV?$shared_ptr@Vb200_iface@@@std@@V?$shared_ptr@Vusb_control@transport@uhd@@@3@@Z
; public: static class std::<class uhd::transport::buffer_pool> __cdecl uhd::transport::buffer_pool::make(unsigned __int64,unsigned __int64,unsigned __int64)
?make@buffer_pool@transport@uhd@@SA?AV?$shared_ptr@Vbuffer_pool@transport@uhd@@@std@@_K00@Z
; public: static class std::<class uhd::usrp::dboard_manager> __cdecl uhd::usrp::dboard_manager::make(struct uhd::usrp::dboard_eeprom_t,struct uhd::usrp::dboard_eeprom_t,struct uhd::usrp::dboard_eeprom_t,class std::<class uhd::usrp::dboard_iface>,class std::<class uhd::property_tree>,bool)
?make@dboard_manager@usrp@uhd@@SA?AV?$shared_ptr@Vdboard_manager@usrp@uhd@@@std@@Udboard_eeprom_t@23@00V?$shared_ptr@Vdboard_iface@usrp@uhd@@@5@V?$shared_ptr@Vproperty_tree@uhd@@@5@_N@Z
; public: static class std::<class uhd::usrp::dboard_manager> __cdecl uhd::usrp::dboard_manager::make(class uhd::usrp::dboard_id_t,class uhd::usrp::dboard_id_t,class uhd::usrp::dboard_id_t,class std::<class uhd::usrp::dboard_iface>,class std::<class uhd::property_tree>,bool)
?make@dboard_manager@usrp@uhd@@SA?AV?$shared_ptr@Vdboard_manager@usrp@uhd@@@std@@Vdboard_id_t@23@00V?$shared_ptr@Vdboard_iface@usrp@uhd@@@5@V?$shared_ptr@Vproperty_tree@uhd@@@5@_N@Z
; public: static class std::<class uhd::device> __cdecl uhd::device::make(class uhd::device_addr_t const &__ptr64 ,enum uhd::device::device_filter_t,unsigned __int64)
?make@device@uhd@@SA?AV?$shared_ptr@Vdevice@uhd@@@std@@AEBVdevice_addr_t@2@W4device_filter_t@12@_K@Z
; private: static class std::<class uhd::experts::expert_container> __cdecl uhd::experts::expert_container::make(class std::<char,struct std::<char>,class std::<char>> const &__ptr64 )
?make@expert_container@experts@uhd@@CA?AV?$shared_ptr@Vexpert_container@experts@uhd@@@std@@AEBV?$basic_string@DU?$char_traits@D@std@@V?$allocator@D@2@@5@@Z
; public: static class std::<class uhd::gain_group> __cdecl uhd::gain_group::make(void)
?make@gain_group@uhd@@SA?AV?$shared_ptr@Vgain_group@uhd@@@std@@XZ
; public: static class std::<class uhd::gps_ctrl> __cdecl uhd::gps_ctrl::make(class std::<class uhd::uart_iface>)
?make@gps_ctrl@uhd@@SA?AV?$shared_ptr@Vgps_ctrl@uhd@@@std@@V?$shared_ptr@Vuart_iface@uhd@@@4@@Z
; public: static class std::<class uhd::usrp::cal::iq_cal> __cdecl uhd::usrp::cal::iq_cal::make(class std::<char,struct std::<char>,class std::<char>> const &__ptr64 ,class std::<char,struct std::<char>,class std::<char>> const &__ptr64 ,unsigned __int64)
?make@iq_cal@cal@usrp@uhd@@SA?AV?$shared_ptr@Viq_cal@cal@usrp@uhd@@@std@@AEBV?$basic_string@DU?$char_traits@D@std@@V?$allocator@D@2@@6@0_K@Z
; public: static class std::<class uhd::usrp::cal::iq_cal> __cdecl uhd::usrp::cal::iq_cal::make(void)
?make@iq_cal@cal@usrp@uhd@@SA?AV?$shared_ptr@Viq_cal@cal@usrp@uhd@@@std@@XZ
; public: static class std::<class uhd::msg_task> __cdecl uhd::msg_task::make(class std::<class boost::<struct std::<unsigned int,class std::<unsigned char,class std::<unsigned char>>>> __cdecl(void)> const &__ptr64 )
?make@msg_task@uhd@@SA?AV?$shared_ptr@Vmsg_task@uhd@@@std@@AEBV?$function@$$A6A?AV?$optional@U?$pair@IV?$vector@EV?$allocator@E@std@@@std@@@std@@@boost@@XZ@4@@Z
; public: static class std::<class uhd::usrp::multi_usrp> __cdecl uhd::usrp::multi_usrp::make(class uhd::device_addr_t const &__ptr64 )
?make@multi_usrp@usrp@uhd@@SA?AV?$shared_ptr@Vmulti_usrp@usrp@uhd@@@std@@AEBVdevice_addr_t@3@@Z
; public: static class std::<class uhd::usrp_clock::multi_usrp_clock> __cdecl uhd::usrp_clock::multi_usrp_clock::make(class uhd::device_addr_t const &__ptr64 )
?make@multi_usrp_clock@usrp_clock@uhd@@SA?AV?$shared_ptr@Vmulti_usrp_clock@usrp_clock@uhd@@@std@@AEBVdevice_addr_t@3@@Z
; public: static class std::<class uhd::property_tree> __cdecl uhd::property_tree::make(void)
?make@property_tree@uhd@@SA?AV?$shared_ptr@Vproperty_tree@uhd@@@std@@XZ
; public: static class std::<class uhd::usrp::cal::pwr_cal> __cdecl uhd::usrp::cal::pwr_cal::make(class std::<char,struct std::<char>,class std::<char>> const &__ptr64 ,class std::<char,struct std::<char>,class std::<char>> const &__ptr64 ,unsigned __int64)
?make@pwr_cal@cal@usrp@uhd@@SA?AV?$shared_ptr@Vpwr_cal@cal@usrp@uhd@@@std@@AEBV?$basic_string@DU?$char_traits@D@std@@V?$allocator@D@2@@6@0_K@Z
; public: static class std::<class uhd::usrp::cal::pwr_cal> __cdecl uhd::usrp::cal::pwr_cal::make(void)
?make@pwr_cal@cal@usrp@uhd@@SA?AV?$shared_ptr@Vpwr_cal@cal@usrp@uhd@@@std@@XZ
; public: static class std::<class uhd::rfnoc::rfnoc_graph> __cdecl uhd::rfnoc::rfnoc_graph::make(class uhd::device_addr_t const &__ptr64 )
?make@rfnoc_graph@rfnoc@uhd@@SA?AV?$shared_ptr@Vrfnoc_graph@rfnoc@uhd@@@std@@AEBVdevice_addr_t@3@@Z
; public: static class std::<struct uhd::rfnoc::rx_event_action_info> __cdecl uhd::rfnoc::rx_event_action_info::make(enum uhd::rx_metadata_t::error_code_t)
?make@rx_event_action_info@rfnoc@uhd@@SA?AV?$shared_ptr@Urx_event_action_info@rfnoc@uhd@@@std@@W4error_code_t@rx_metadata_t@3@@Z
; public: static class std::<struct uhd::rfnoc::stream_cmd_action_info> __cdecl uhd::rfnoc::stream_cmd_action_info::make(enum uhd::stream_cmd_t::stream_mode_t)
?make@stream_cmd_action_info@rfnoc@uhd@@SA?AV?$shared_ptr@Ustream_cmd_action_info@rfnoc@uhd@@@std@@W4stream_mode_t@stream_cmd_t@3@@Z
; public: static class std::<class uhd::task> __cdecl uhd::task::make(class std::<void __cdecl(void)> const &__ptr64 ,class std::<char,struct std::<char>,class std::<char>> const &__ptr64 )
?make@task@uhd@@SA?AV?$shared_ptr@Vtask@uhd@@@std@@AEBV?$function@$$A6AXXZ@4@AEBV?$basic_string@DU?$char_traits@D@std@@V?$allocator@D@2@@4@@Z
; public: static class std::<struct uhd::rfnoc::tune_request_action_info> __cdecl uhd::rfnoc::tune_request_action_info::make(struct uhd::tune_request_t)
?make@tune_request_action_info@rfnoc@uhd@@SA?AV?$shared_ptr@Utune_request_action_info@rfnoc@uhd@@@std@@Utune_request_t@3@@Z
; public: static class std::<struct uhd::rfnoc::tx_event_action_info> __cdecl uhd::rfnoc::tx_event_action_info::make(enum uhd::async_metadata_t::event_code_t,class boost::<unsigned __int64> const &__ptr64 )
?make@tx_event_action_info@rfnoc@uhd@@SA?AV?$shared_ptr@Utx_event_action_info@rfnoc@uhd@@@std@@W4event_code_t@async_metadata_t@3@AEBV?$optional@_K@boost@@@Z
; public: static class std::<class uhd::transport::udp_zero_copy> __cdecl uhd::transport::udp_zero_copy::make(class std::<char,struct std::<char>,class std::<char>> const &__ptr64 ,class std::<char,struct std::<char>,class std::<char>> const &__ptr64 ,struct uhd::transport::zero_copy_xport_params const &__ptr64 ,struct uhd::transport::udp_zero_copy::buff_params &__ptr64 ,class uhd::device_addr_t const &__ptr64 )
?make@udp_zero_copy@transport@uhd@@SA?AV?$shared_ptr@Vudp_zero_copy@transport@uhd@@@std@@AEBV?$basic_string@DU?$char_traits@D@std@@V?$allocator@D@2@@5@0AEBUzero_copy_xport_params@23@AEAUbuff_params@123@AEBVdevice_addr_t@3@@Z
; public: static class std::<class uhd::transport::usb_control> __cdecl uhd::transport::usb_control::make(class std::<class uhd::transport::usb_device_handle>,int)
?make@usb_control@transport@uhd@@SA?AV?$shared_ptr@Vusb_control@transport@uhd@@@std@@V?$shared_ptr@Vusb_device_handle@transport@uhd@@@5@H@Z
; public: static class std::<class uhd::transport::usb_zero_copy> __cdecl uhd::transport::usb_zero_copy::make(class std::<class uhd::transport::usb_device_handle>,int,unsigned char,int,unsigned char,class uhd::device_addr_t const &__ptr64 )
?make@usb_zero_copy@transport@uhd@@SA?AV?$shared_ptr@Vusb_zero_copy@transport@uhd@@@std@@V?$shared_ptr@Vusb_device_handle@transport@uhd@@@5@HEHEAEBVdevice_addr_t@3@@Z
; public: static class std::<class uhd::usrp::cal::zbx_rx_dsa_cal> __cdecl uhd::usrp::cal::zbx_rx_dsa_cal::make(class std::<char,struct std::<char>,class std::<char>> const &__ptr64 ,class std::<char,struct std::<char>,class std::<char>> const &__ptr64 ,unsigned __int64)
?make@zbx_rx_dsa_cal@cal@usrp@uhd@@SA?AV?$shared_ptr@Vzbx_rx_dsa_cal@cal@usrp@uhd@@@std@@AEBV?$basic_string@DU?$char_traits@D@std@@V?$allocator@D@2@@6@0_K@Z
; public: static class std::<class uhd::usrp::cal::zbx_rx_dsa_cal> __cdecl uhd::usrp::cal::zbx_rx_dsa_cal::make(void)
?make@zbx_rx_dsa_cal@cal@usrp@uhd@@SA?AV?$shared_ptr@Vzbx_rx_dsa_cal@cal@usrp@uhd@@@std@@XZ
; public: static class std::<class uhd::usrp::cal::zbx_tx_dsa_cal> __cdecl uhd::usrp::cal::zbx_tx_dsa_cal::make(class std::<char,struct std::<char>,class std::<char>> const &__ptr64 ,class std::<char,struct std::<char>,class std::<char>> const &__ptr64 ,unsigned __int64)
?make@zbx_tx_dsa_cal@cal@usrp@uhd@@SA?AV?$shared_ptr@Vzbx_tx_dsa_cal@cal@usrp@uhd@@@std@@AEBV?$basic_string@DU?$char_traits@D@std@@V?$allocator@D@2@@6@0_K@Z
; public: static class std::<class uhd::usrp::cal::zbx_tx_dsa_cal> __cdecl uhd::usrp::cal::zbx_tx_dsa_cal::make(void)
?make@zbx_tx_dsa_cal@cal@usrp@uhd@@SA?AV?$shared_ptr@Vzbx_tx_dsa_cal@cal@usrp@uhd@@@std@@XZ
; public: static class std::<class uhd::niusrprio::niriok_proxy> __cdecl uhd::niusrprio::niriok_proxy::make_and_open(class std::<char,struct std::<char>,class std::<char>> const &__ptr64 )
?make_and_open@niriok_proxy@niusrprio@uhd@@SA?AV?$shared_ptr@Vniriok_proxy@niusrprio@uhd@@@std@@AEBV?$basic_string@DU?$char_traits@D@std@@V?$allocator@D@2@@5@@Z
; public: static class std::<class uhd::transport::udp_simple> __cdecl uhd::transport::udp_simple::make_broadcast(class std::<char,struct std::<char>,class std::<char>> const &__ptr64 ,class std::<char,struct std::<char>,class std::<char>> const &__ptr64 )
?make_broadcast@udp_simple@transport@uhd@@SA?AV?$shared_ptr@Vudp_simple@transport@uhd@@@std@@AEBV?$basic_string@DU?$char_traits@D@std@@V?$allocator@D@2@@5@0@Z
; public: static class std::<class uhd::transport::udp_simple> __cdecl uhd::transport::udp_simple::make_connected(class std::<char,struct std::<char>,class std::<char>> const &__ptr64 ,class std::<char,struct std::<char>,class std::<char>> const &__ptr64 )
?make_connected@udp_simple@transport@uhd@@SA?AV?$shared_ptr@Vudp_simple@transport@uhd@@@std@@AEBV?$basic_string@DU?$char_traits@D@std@@V?$allocator@D@2@@5@0@Z
; public: static class std::<class uhd::uart_iface> __cdecl uhd::transport::udp_simple::make_uart(class std::<class uhd::transport::udp_simple>)
?make_uart@udp_simple@transport@uhd@@SA?AV?$shared_ptr@Vuart_iface@uhd@@@std@@V?$shared_ptr@Vudp_simple@transport@uhd@@@5@@Z
; public: static class std::<class uhd::gain_group> __cdecl uhd::gain_group::make_zero(void)
?make_zero@gain_group@uhd@@SA?AV?$shared_ptr@Vgain_group@uhd@@@std@@XZ
; public: virtual int __cdecl uhd::niusrprio::niriok_proxy_impl_v1::map_fifo_memory(unsigned int,unsigned __int64,struct nirio_driver_iface::rio_mmap_t &__ptr64 )__ptr64 
?map_fifo_memory@niriok_proxy_impl_v1@niusrprio@uhd@@UEAAHI_KAEAUrio_mmap_t@nirio_driver_iface@@@Z
; public: virtual int __cdecl uhd::niusrprio::niriok_proxy_impl_v2::map_fifo_memory(unsigned int,unsigned __int64,struct nirio_driver_iface::rio_mmap_t &__ptr64 )__ptr64 
?map_fifo_memory@niriok_proxy_impl_v2@niusrprio@uhd@@UEAAHI_KAEAUrio_mmap_t@nirio_driver_iface@@@Z
; public: bool __cdecl uhd::rfnoc::block_id_t::match(class std::<char,struct std::<char>,class std::<char>> const &__ptr64 )__ptr64 
?match@block_id_t@rfnoc@uhd@@QEAA_NAEBV?$basic_string@DU?$char_traits@D@std@@V?$allocator@D@2@@std@@@Z
; public: unsigned __int64 __cdecl std::<struct uhd::usrp::subdev_spec_pair_t,class std::<struct uhd::usrp::subdev_spec_pair_t>>::max_size(void)const __ptr64 
?max_size@?$vector@Usubdev_spec_pair_t@usrp@uhd@@V?$allocator@Usubdev_spec_pair_t@usrp@uhd@@@std@@@std@@QEBA_KXZ
; public: unsigned __int64 __cdecl std::<class uhd::range_t,class std::<class uhd::range_t>>::max_size(void)const __ptr64 
?max_size@?$vector@Vrange_t@uhd@@V?$allocator@Vrange_t@uhd@@@std@@@std@@QEBA_KXZ
; public: static unsigned __int64 const uhd::transport::udp_simple::mtu
?mtu@udp_simple@transport@uhd@@2_KB DATA
; public: virtual void __cdecl uhd::rfnoc::mock_reg_iface_t::multi_poke32(class std::<unsigned int,class std::<unsigned int>>,class std::<unsigned int,class std::<unsigned int>>,class uhd::time_spec_t,bool)__ptr64 
?multi_poke32@mock_reg_iface_t@rfnoc@uhd@@UEAAXV?$vector@IV?$allocator@I@std@@@std@@0Vtime_spec_t@3@_N@Z
; void __cdecl uhd::niusrprio::nirio_status_to_exception(int const &__ptr64 ,class std::<char,struct std::<char>,class std::<char>> const &__ptr64 )
?nirio_status_to_exception@niusrprio@uhd@@YAXAEBHAEBV?$basic_string@DU?$char_traits@D@std@@V?$allocator@D@2@@std@@@Z
; public: int __cdecl uhd::usrprio_rpc::usrprio_rpc_client::niusrprio_close_session(class std::<char,struct std::<char>,class std::<char>> const &__ptr64 )__ptr64 
?niusrprio_close_session@usrprio_rpc_client@usrprio_rpc@uhd@@QEAAHAEBV?$basic_string@DU?$char_traits@D@std@@V?$allocator@D@2@@std@@@Z
; public: int __cdecl uhd::usrprio_rpc::usrprio_rpc_client::niusrprio_download_bitstream_to_fpga(class std::<char,struct std::<char>,class std::<char>> const &__ptr64 )__ptr64 
?niusrprio_download_bitstream_to_fpga@usrprio_rpc_client@usrprio_rpc@uhd@@QEAAHAEBV?$basic_string@DU?$char_traits@D@std@@V?$allocator@D@2@@std@@@Z
; public: int __cdecl uhd::usrprio_rpc::usrprio_rpc_client::niusrprio_download_fpga_to_flash(class std::<char,struct std::<char>,class std::<char>> const &__ptr64 ,class std::<char,struct std::<char>,class std::<char>> const &__ptr64 )__ptr64 
?niusrprio_download_fpga_to_flash@usrprio_rpc_client@usrprio_rpc@uhd@@QEAAHAEBV?$basic_string@DU?$char_traits@D@std@@V?$allocator@D@2@@std@@0@Z
; public: int __cdecl uhd::usrprio_rpc::usrprio_rpc_client::niusrprio_enumerate(class std::<struct uhd::usrprio_rpc::usrprio_device_info,class std::<struct uhd::usrprio_rpc::usrprio_device_info>> &__ptr64 )__ptr64 
?niusrprio_enumerate@usrprio_rpc_client@usrprio_rpc@uhd@@QEAAHAEAV?$vector@Uusrprio_device_info@usrprio_rpc@uhd@@V?$allocator@Uusrprio_device_info@usrprio_rpc@uhd@@@std@@@std@@@Z
; public: int __cdecl uhd::usrprio_rpc::usrprio_rpc_client::niusrprio_get_interface_path(class std::<char,struct std::<char>,class std::<char>> const &__ptr64 ,class std::<char,struct std::<char>,class std::<char>> &__ptr64 )__ptr64 
?niusrprio_get_interface_path@usrprio_rpc_client@usrprio_rpc@uhd@@QEAAHAEBV?$basic_string@DU?$char_traits@D@std@@V?$allocator@D@2@@std@@AEAV45@@Z
; public: int __cdecl uhd::usrprio_rpc::usrprio_rpc_client::niusrprio_open_session(class std::<char,struct std::<char>,class std::<char>> const &__ptr64 ,class std::<char,struct std::<char>,class std::<char>> const &__ptr64 ,class std::<char,struct std::<char>,class std::<char>> const &__ptr64 ,unsigned short const &__ptr64 )__ptr64 
?niusrprio_open_session@usrprio_rpc_client@usrprio_rpc@uhd@@QEAAHAEBV?$basic_string@DU?$char_traits@D@std@@V?$allocator@D@2@@std@@00AEBG@Z
; public: int __cdecl uhd::usrprio_rpc::usrprio_rpc_client::niusrprio_reset_device(class std::<char,struct std::<char>,class std::<char>> const &__ptr64 )__ptr64 
?niusrprio_reset_device@usrprio_rpc_client@usrprio_rpc@uhd@@QEAAHAEBV?$basic_string@DU?$char_traits@D@std@@V?$allocator@D@2@@std@@@Z
; public: static class uhd::usrp::dboard_id_t __cdecl uhd::usrp::dboard_id_t::none(void)
?none@dboard_id_t@usrp@uhd@@SA?AV123@XZ
; public: virtual int __cdecl uhd::niusrprio::niriok_proxy_impl_v1::open(class std::<char,struct std::<char>,class std::<char>> const &__ptr64 )__ptr64 
?open@niriok_proxy_impl_v1@niusrprio@uhd@@UEAAHAEBV?$basic_string@DU?$char_traits@D@std@@V?$allocator@D@2@@std@@@Z
; public: virtual int __cdecl uhd::niusrprio::niriok_proxy_impl_v2::open(class std::<char,struct std::<char>,class std::<char>> const &__ptr64 )__ptr64 
?open@niriok_proxy_impl_v2@niusrprio@uhd@@UEAAHAEBV?$basic_string@DU?$char_traits@D@std@@V?$allocator@D@2@@std@@@Z
; public: int __cdecl uhd::niusrprio::niusrprio_session::open(class std::<class uhd::niusrprio::nifpga_lvbitx>,bool)__ptr64 
?open@niusrprio_session@niusrprio@uhd@@QEAAHV?$shared_ptr@Vnifpga_lvbitx@niusrprio@uhd@@@std@@_N@Z
; class boost::<enum uhd::log::severity_level> __cdecl uhd::log::parse_log_level_from_string(class std::<char,struct std::<char>,class std::<char>> const &__ptr64 )
?parse_log_level_from_string@log@uhd@@YA?AV?$optional@W4severity_level@log@uhd@@@boost@@AEBV?$basic_string@DU?$char_traits@D@std@@V?$allocator@D@2@@std@@@Z
; public: virtual unsigned short __cdecl uhd::wb_iface::peek16(unsigned int)__ptr64 
?peek16@wb_iface@uhd@@UEAAGI@Z
; public: virtual unsigned int __cdecl uhd::rfnoc::mock_reg_iface_t::peek32(unsigned int,class uhd::time_spec_t)__ptr64 
?peek32@mock_reg_iface_t@rfnoc@uhd@@UEAAIIVtime_spec_t@3@@Z
; public: virtual unsigned int __cdecl uhd::rfnoc::reg_iface_adapter::peek32(unsigned int)__ptr64 
?peek32@reg_iface_adapter@rfnoc@uhd@@UEAAII@Z
; public: virtual unsigned int __cdecl uhd::wb_iface::peek32(unsigned int)__ptr64 
?peek32@wb_iface@uhd@@UEAAII@Z
; public: virtual unsigned __int64 __cdecl uhd::rfnoc::reg_iface_adapter::peek64(unsigned int)__ptr64 
?peek64@reg_iface_adapter@rfnoc@uhd@@UEAA_KI@Z
; public: virtual unsigned __int64 __cdecl uhd::wb_iface::peek64(unsigned int)__ptr64 
?peek64@wb_iface@uhd@@UEAA_KI@Z
; public: virtual int __cdecl uhd::niusrprio::niriok_proxy_impl_v1::peek(unsigned int,unsigned int &__ptr64 )__ptr64 
?peek@niriok_proxy_impl_v1@niusrprio@uhd@@UEAAHIAEAI@Z
; public: virtual int __cdecl uhd::niusrprio::niriok_proxy_impl_v1::peek(unsigned int,unsigned __int64 &__ptr64 )__ptr64 
?peek@niriok_proxy_impl_v1@niusrprio@uhd@@UEAAHIAEA_K@Z
; public: virtual int __cdecl uhd::niusrprio::niriok_proxy_impl_v2::peek(unsigned int,unsigned int &__ptr64 )__ptr64 
?peek@niriok_proxy_impl_v2@niusrprio@uhd@@UEAAHIAEAI@Z
; public: virtual int __cdecl uhd::niusrprio::niriok_proxy_impl_v2::peek(unsigned int,unsigned __int64 &__ptr64 )__ptr64 
?peek@niriok_proxy_impl_v2@niusrprio@uhd@@UEAAHIAEA_K@Z
; class std::<char,struct std::<char>,class std::<char>> const __cdecl uhd::build_info::pkg_data_dir(void)
?pkg_data_dir@build_info@uhd@@YA?BV?$basic_string@DU?$char_traits@D@std@@V?$allocator@D@2@@std@@XZ
; public: virtual void __cdecl uhd::wb_iface::poke16(unsigned int,unsigned short)__ptr64 
?poke16@wb_iface@uhd@@UEAAXIG@Z
; public: virtual void __cdecl uhd::rfnoc::mock_reg_iface_t::poke32(unsigned int,unsigned int,class uhd::time_spec_t,bool)__ptr64 
?poke32@mock_reg_iface_t@rfnoc@uhd@@UEAAXIIVtime_spec_t@3@_N@Z
; public: virtual void __cdecl uhd::rfnoc::reg_iface_adapter::poke32(unsigned int,unsigned int)__ptr64 
?poke32@reg_iface_adapter@rfnoc@uhd@@UEAAXII@Z
; public: virtual void __cdecl uhd::wb_iface::poke32(unsigned int,unsigned int)__ptr64 
?poke32@wb_iface@uhd@@UEAAXII@Z
; public: virtual void __cdecl uhd::rfnoc::reg_iface_adapter::poke64(unsigned int,unsigned __int64)__ptr64 
?poke64@reg_iface_adapter@rfnoc@uhd@@UEAAXI_K@Z
; public: virtual void __cdecl uhd::wb_iface::poke64(unsigned int,unsigned __int64)__ptr64 
?poke64@wb_iface@uhd@@UEAAXI_K@Z
; public: virtual int __cdecl uhd::niusrprio::niriok_proxy_impl_v1::poke(unsigned int,unsigned int const &__ptr64 )__ptr64 
?poke@niriok_proxy_impl_v1@niusrprio@uhd@@UEAAHIAEBI@Z
; public: virtual int __cdecl uhd::niusrprio::niriok_proxy_impl_v1::poke(unsigned int,unsigned __int64 const &__ptr64 )__ptr64 
?poke@niriok_proxy_impl_v1@niusrprio@uhd@@UEAAHIAEB_K@Z
; public: virtual int __cdecl uhd::niusrprio::niriok_proxy_impl_v2::poke(unsigned int,unsigned int const &__ptr64 )__ptr64 
?poke@niriok_proxy_impl_v2@niusrprio@uhd@@UEAAHIAEBI@Z
; public: virtual int __cdecl uhd::niusrprio::niriok_proxy_impl_v2::poke(unsigned int,unsigned __int64 const &__ptr64 )__ptr64 
?poke@niriok_proxy_impl_v2@niusrprio@uhd@@UEAAHIAEB_K@Z
; public: virtual void __cdecl uhd::rfnoc::mock_reg_iface_t::poll32(unsigned int,unsigned int,unsigned int,class uhd::time_spec_t,class uhd::time_spec_t,bool)__ptr64 
?poll32@mock_reg_iface_t@rfnoc@uhd@@UEAAXIIIVtime_spec_t@3@0_N@Z
; public: class std::<char,struct std::<char>,class std::<char>> __cdecl uhd::<class std::<char,struct std::<char>,class std::<char>>,class std::<char,struct std::<char>,class std::<char>>>::pop(class std::<char,struct std::<char>,class std::<char>> const &__ptr64 )__ptr64 
?pop@?$dict@V?$basic_string@DU?$char_traits@D@std@@V?$allocator@D@2@@std@@V12@@uhd@@QEAA?AV?$basic_string@DU?$char_traits@D@std@@V?$allocator@D@2@@std@@AEBV34@@Z
; public: void __cdecl std::<struct uhd::usrp::subdev_spec_pair_t,class std::<struct uhd::usrp::subdev_spec_pair_t>>::pop_back(void)__ptr64 
?pop_back@?$vector@Usubdev_spec_pair_t@usrp@uhd@@V?$allocator@Usubdev_spec_pair_t@usrp@uhd@@@std@@@std@@QEAAXXZ
; public: void __cdecl std::<class uhd::range_t,class std::<class uhd::range_t>>::pop_back(void)__ptr64 
?pop_back@?$vector@Vrange_t@uhd@@V?$allocator@Vrange_t@uhd@@@std@@@std@@QEAAXXZ
; public: class uhd::rfnoc::chdr::mgmt_hop_t __cdecl uhd::rfnoc::chdr::mgmt_payload::pop_hop(void)__ptr64 
?pop_hop@mgmt_payload@chdr@rfnoc@uhd@@QEAA?AVmgmt_hop_t@234@XZ
; public: void __cdecl uhd::rfnoc::chdr::ctrl_payload::populate_header(class uhd::rfnoc::chdr::chdr_header &__ptr64 )const __ptr64 
?populate_header@ctrl_payload@chdr@rfnoc@uhd@@QEBAXAEAVchdr_header@234@@Z
; public: void __cdecl uhd::rfnoc::chdr::mgmt_payload::populate_header(class uhd::rfnoc::chdr::chdr_header &__ptr64 )const __ptr64 
?populate_header@mgmt_payload@chdr@rfnoc@uhd@@QEBAXAEAVchdr_header@234@@Z
; public: void __cdecl uhd::rfnoc::chdr::strc_payload::populate_header(class uhd::rfnoc::chdr::chdr_header &__ptr64 )const __ptr64 
?populate_header@strc_payload@chdr@rfnoc@uhd@@QEBAXAEAVchdr_header@234@@Z
; public: void __cdecl uhd::rfnoc::chdr::strs_payload::populate_header(class uhd::rfnoc::chdr::chdr_header &__ptr64 )const __ptr64 
?populate_header@strs_payload@chdr@rfnoc@uhd@@QEBAXAEAVchdr_header@234@@Z
; protected: void __cdecl uhd::rfnoc::node_t::post_action(struct uhd::rfnoc::res_source_info const &__ptr64 ,class std::<struct uhd::rfnoc::action_info>)__ptr64 
?post_action@node_t@rfnoc@uhd@@IEAAXAEBUres_source_info@23@V?$shared_ptr@Uaction_info@rfnoc@uhd@@@std@@@Z
; private: void __cdecl uhd::rfnoc::noc_block_base::post_init(void)__ptr64 
?post_init@noc_block_base@rfnoc@uhd@@AEAAXXZ
; class std::<char,struct std::<char>,class std::<char>> __cdecl uhd::print_utility_error(class std::<char,struct std::<char>,class std::<char>> const &__ptr64 ,class std::<char,struct std::<char>,class std::<char>> const &__ptr64 )
?print_utility_error@uhd@@YA?AV?$basic_string@DU?$char_traits@D@std@@V?$allocator@D@2@@std@@AEBV23@0@Z
; public: void __cdecl std::<struct uhd::usrp::subdev_spec_pair_t,class std::<struct uhd::usrp::subdev_spec_pair_t>>::push_back(,struct uhd::usrp::subdev_spec_pair_t *__ptr64 const)__ptr64 
?push_back@?$vector@Usubdev_spec_pair_t@usrp@uhd@@V?$allocator@Usubdev_spec_pair_t@usrp@uhd@@@std@@@std@@QEAAX$$QEAUsubdev_spec_pair_t@usrp@uhd@@@Z
; public: void __cdecl std::<struct uhd::usrp::subdev_spec_pair_t,class std::<struct uhd::usrp::subdev_spec_pair_t>>::push_back(struct uhd::usrp::subdev_spec_pair_t const &__ptr64 )__ptr64 
?push_back@?$vector@Usubdev_spec_pair_t@usrp@uhd@@V?$allocator@Usubdev_spec_pair_t@usrp@uhd@@@std@@@std@@QEAAXAEBUsubdev_spec_pair_t@usrp@uhd@@@Z
; public: void __cdecl std::<class uhd::range_t,class std::<class uhd::range_t>>::push_back(,class uhd::range_t *__ptr64 const)__ptr64 
?push_back@?$vector@Vrange_t@uhd@@V?$allocator@Vrange_t@uhd@@@std@@@std@@QEAAX$$QEAVrange_t@uhd@@@Z
; public: void __cdecl std::<class uhd::range_t,class std::<class uhd::range_t>>::push_back(class uhd::range_t const &__ptr64 )__ptr64 
?push_back@?$vector@Vrange_t@uhd@@V?$allocator@Vrange_t@uhd@@@std@@@std@@QEAAXAEBVrange_t@uhd@@@Z
; public: class std::<class std::<class std::<struct std::<struct uhd::usrp::subdev_spec_pair_t>>>> __cdecl std::<struct uhd::usrp::subdev_spec_pair_t,class std::<struct uhd::usrp::subdev_spec_pair_t>>::rbegin(void)__ptr64 
?rbegin@?$vector@Usubdev_spec_pair_t@usrp@uhd@@V?$allocator@Usubdev_spec_pair_t@usrp@uhd@@@std@@@std@@QEAA?AV?$reverse_iterator@V?$_Vector_iterator@V?$_Vector_val@U?$_Simple_types@Usubdev_spec_pair_t@usrp@uhd@@@std@@@std@@@std@@@2@XZ
; public: class std::<class std::<class std::<struct std::<struct uhd::usrp::subdev_spec_pair_t>>>> __cdecl std::<struct uhd::usrp::subdev_spec_pair_t,class std::<struct uhd::usrp::subdev_spec_pair_t>>::rbegin(void)const __ptr64 
?rbegin@?$vector@Usubdev_spec_pair_t@usrp@uhd@@V?$allocator@Usubdev_spec_pair_t@usrp@uhd@@@std@@@std@@QEBA?AV?$reverse_iterator@V?$_Vector_const_iterator@V?$_Vector_val@U?$_Simple_types@Usubdev_spec_pair_t@usrp@uhd@@@std@@@std@@@std@@@2@XZ
; public: class std::<class std::<class std::<struct std::<class uhd::range_t>>>> __cdecl std::<class uhd::range_t,class std::<class uhd::range_t>>::rbegin(void)__ptr64 
?rbegin@?$vector@Vrange_t@uhd@@V?$allocator@Vrange_t@uhd@@@std@@@std@@QEAA?AV?$reverse_iterator@V?$_Vector_iterator@V?$_Vector_val@U?$_Simple_types@Vrange_t@uhd@@@std@@@std@@@std@@@2@XZ
; public: class std::<class std::<class std::<struct std::<class uhd::range_t>>>> __cdecl std::<class uhd::range_t,class std::<class uhd::range_t>>::rbegin(void)const __ptr64 
?rbegin@?$vector@Vrange_t@uhd@@V?$allocator@Vrange_t@uhd@@@std@@@std@@QEBA?AV?$reverse_iterator@V?$_Vector_const_iterator@V?$_Vector_val@U?$_Simple_types@Vrange_t@uhd@@@std@@@std@@@std@@@2@XZ
; public: unsigned int __cdecl uhd::<unsigned int,0x1ULL,0x0ULL>::read(unsigned int)__ptr64 
?read@?$soft_register_t@I$00$0A@@uhd@@QEAAII@Z
; public: unsigned __int64 __cdecl uhd::<unsigned __int64,0x1ULL,0x0ULL>::read(unsigned int)__ptr64 
?read@?$soft_register_t@_K$00$0A@@uhd@@QEAA_KI@Z
; public: bool __cdecl uhd::rfnoc::property_base_t::read_access_granted(void)const __ptr64 
?read_access_granted@property_base_t@rfnoc@uhd@@QEBA_NXZ
; public: static class std::<unsigned char,class std::<unsigned char>> __cdecl uhd::usrp::cal::database::read_cal_data(class std::<char,struct std::<char>,class std::<char>> const &__ptr64 ,class std::<char,struct std::<char>,class std::<char>> const &__ptr64 ,enum uhd::usrp::cal::source)
?read_cal_data@database@cal@usrp@uhd@@SA?AV?$vector@EV?$allocator@E@std@@@std@@AEBV?$basic_string@DU?$char_traits@D@std@@V?$allocator@D@2@@6@0W4source@234@@Z
; public: virtual class std::<unsigned char,class std::<unsigned char>> __cdecl uhd::i2c_iface::read_eeprom(unsigned short,unsigned short,unsigned __int64)__ptr64 
?read_eeprom@i2c_iface@uhd@@UEAA?AV?$vector@EV?$allocator@E@std@@@std@@GG_K@Z
; public: virtual int __cdecl uhd::niusrprio::niriok_proxy_impl_v1::read_fifo(unsigned int,unsigned int,void *__ptr64,unsigned int,unsigned int,unsigned int,unsigned int,unsigned int &__ptr64 ,unsigned int &__ptr64 )__ptr64 
?read_fifo@niriok_proxy_impl_v1@niusrprio@uhd@@UEAAHIIPEAXIIIIAEAI1@Z
; public: virtual int __cdecl uhd::niusrprio::niriok_proxy_impl_v2::read_fifo(unsigned int,unsigned int,void *__ptr64,unsigned int,unsigned int,unsigned int,unsigned int,unsigned int &__ptr64 ,unsigned int &__ptr64 )__ptr64 
?read_fifo@niriok_proxy_impl_v2@niusrprio@uhd@@UEAAHIIPEAXIIIIAEAI1@Z
; public: virtual unsigned int __cdecl uhd::spi_iface::read_spi(int,struct uhd::spi_config_t const &__ptr64 ,unsigned int,unsigned __int64)__ptr64 
?read_spi@spi_iface@uhd@@UEAAIHAEBUspi_config_t@2@I_K@Z
; private: void __cdecl uhd::rfnoc::node_t::receive_action(struct uhd::rfnoc::res_source_info const &__ptr64 ,class std::<struct uhd::rfnoc::action_info>)__ptr64 
?receive_action@node_t@rfnoc@uhd@@AEAAXAEBUres_source_info@23@V?$shared_ptr@Uaction_info@rfnoc@uhd@@@std@@@Z
; public: int __cdecl uhd::transport::managed_buffer::ref_count(void)__ptr64 
?ref_count@managed_buffer@transport@uhd@@QEAAHXZ
; public: virtual void __cdecl uhd::<unsigned int,0x1ULL,0x0ULL>::refresh(void)__ptr64 
?refresh@?$soft_register_t@I$00$0A@@uhd@@UEAAXXZ
; public: virtual void __cdecl uhd::<unsigned int,0x0ULL,0x1ULL>::refresh(void)__ptr64 
?refresh@?$soft_register_t@I$0A@$00@uhd@@UEAAXXZ
; public: virtual void __cdecl uhd::<unsigned __int64,0x1ULL,0x0ULL>::refresh(void)__ptr64 
?refresh@?$soft_register_t@_K$00$0A@@uhd@@UEAAXXZ
; public: void __cdecl uhd::soft_regmap_t::refresh(void)__ptr64 
?refresh@soft_regmap_t@uhd@@QEAAXXZ
; protected: void __cdecl uhd::rfnoc::node_t::register_action_handler(class std::<char,struct std::<char>,class std::<char>> const &__ptr64 ,,class std::<void __cdecl(struct uhd::rfnoc::res_source_info const &__ptr64 ,class std::<struct uhd::rfnoc::action_info>)> *__ptr64 const)__ptr64 
?register_action_handler@node_t@rfnoc@uhd@@IEAAXAEBV?$basic_string@DU?$char_traits@D@std@@V?$allocator@D@2@@std@@$$QEAV?$function@$$A6AXAEBUres_source_info@rfnoc@uhd@@V?$shared_ptr@Uaction_info@rfnoc@uhd@@@std@@@Z@5@@Z
; public: virtual void __cdecl uhd::rfnoc::mock_reg_iface_t::register_async_msg_handler(class std::<void __cdecl(unsigned int,class std::<unsigned int,class std::<unsigned int>> const &__ptr64 ,class boost::<unsigned __int64>)>)__ptr64 
?register_async_msg_handler@mock_reg_iface_t@rfnoc@uhd@@UEAAXV?$function@$$A6AXIAEBV?$vector@IV?$allocator@I@std@@@std@@V?$optional@_K@boost@@@Z@std@@@Z
; public: virtual void __cdecl uhd::rfnoc::mock_reg_iface_t::register_async_msg_validator(class std::<bool __cdecl(unsigned int,class std::<unsigned int,class std::<unsigned int>> const &__ptr64 )>)__ptr64 
?register_async_msg_validator@mock_reg_iface_t@rfnoc@uhd@@UEAAXV?$function@$$A6A_NIAEBV?$vector@IV?$allocator@I@std@@@std@@@Z@std@@@Z
; public: static void __cdecl uhd::rfnoc::registry::register_block_descriptor(class std::<char,struct std::<char>,class std::<char>> const &__ptr64 ,class std::<class std::<class uhd::rfnoc::noc_block_base> __cdecl(class std::<struct uhd::rfnoc::noc_block_base::make_args_t,struct std::<struct uhd::rfnoc::noc_block_base::make_args_t>>)>)
?register_block_descriptor@registry@rfnoc@uhd@@SAXAEBV?$basic_string@DU?$char_traits@D@std@@V?$allocator@D@2@@std@@V?$function@$$A6A?AV?$shared_ptr@Vnoc_block_base@rfnoc@uhd@@@std@@V?$unique_ptr@Umake_args_t@noc_block_base@rfnoc@uhd@@U?$default_delete@Umake_args_t@noc_block_base@rfnoc@uhd@@@std@@@2@@Z@5@@Z
; public: static void __cdecl uhd::rfnoc::registry::register_block_direct(unsigned int,unsigned short,class std::<char,struct std::<char>,class std::<char>> const &__ptr64 ,bool,class std::<char,struct std::<char>,class std::<char>> const &__ptr64 ,class std::<char,struct std::<char>,class std::<char>> const &__ptr64 ,class std::<class std::<class uhd::rfnoc::noc_block_base> __cdecl(class std::<struct uhd::rfnoc::noc_block_base::make_args_t,struct std::<struct uhd::rfnoc::noc_block_base::make_args_t>>)>)
?register_block_direct@registry@rfnoc@uhd@@SAXIGAEBV?$basic_string@DU?$char_traits@D@std@@V?$allocator@D@2@@std@@_N00V?$function@$$A6A?AV?$shared_ptr@Vnoc_block_base@rfnoc@uhd@@@std@@V?$unique_ptr@Umake_args_t@noc_block_base@rfnoc@uhd@@U?$default_delete@Umake_args_t@noc_block_base@rfnoc@uhd@@@std@@@2@@Z@5@@Z
; public: static void __cdecl uhd::rfnoc::registry::register_block_direct(class std::<unsigned int,class std::<unsigned int>>,unsigned short,class std::<char,struct std::<char>,class std::<char>> const &__ptr64 ,bool,class std::<char,struct std::<char>,class std::<char>> const &__ptr64 ,class std::<char,struct std::<char>,class std::<char>> const &__ptr64 ,class std::<class std::<class uhd::rfnoc::noc_block_base> __cdecl(class std::<struct uhd::rfnoc::noc_block_base::make_args_t,struct std::<struct uhd::rfnoc::noc_block_base::make_args_t>>)>)
?register_block_direct@registry@rfnoc@uhd@@SAXV?$vector@IV?$allocator@I@std@@@std@@GAEBV?$basic_string@DU?$char_traits@D@std@@V?$allocator@D@2@@5@_N11V?$function@$$A6A?AV?$shared_ptr@Vnoc_block_base@rfnoc@uhd@@@std@@V?$unique_ptr@Umake_args_t@noc_block_base@rfnoc@uhd@@U?$default_delete@Umake_args_t@noc_block_base@rfnoc@uhd@@@std@@@2@@Z@5@@Z
; void __cdecl uhd::convert::register_bytes_per_item(class std::<char,struct std::<char>,class std::<char>> const &__ptr64 ,unsigned __int64)
?register_bytes_per_item@convert@uhd@@YAXAEBV?$basic_string@DU?$char_traits@D@std@@V?$allocator@D@2@@std@@_K@Z
; void __cdecl uhd::convert::register_converter(struct uhd::convert::id_type const &__ptr64 ,class std::<class std::<class uhd::convert::converter> __cdecl(void)> const &__ptr64 ,int)
?register_converter@convert@uhd@@YAXAEBUid_type@12@AEBV?$function@$$A6A?AV?$shared_ptr@Vconverter@convert@uhd@@@std@@XZ@std@@H@Z
; public: static void __cdecl uhd::usrp::dboard_manager::register_dboard(class uhd::usrp::dboard_id_t const &__ptr64 ,class uhd::usrp::dboard_id_t const &__ptr64 ,class std::<class uhd::usrp::dboard_base>(__cdecl *)(void *__ptr64),class std::<char,struct std::<char>,class std::<char>> const &__ptr64 ,class std::<class std::<char,struct std::<char>,class std::<char>>,class std::<class std::<char,struct std::<char>,class std::<char>>>> const &__ptr64 ,class std::<class uhd::usrp::dboard_base>(__cdecl *)(void *__ptr64))
?register_dboard@dboard_manager@usrp@uhd@@SAXAEBVdboard_id_t@23@0P6A?AV?$shared_ptr@Vdboard_base@usrp@uhd@@@std@@PEAX@ZAEBV?$basic_string@DU?$char_traits@D@std@@V?$allocator@D@2@@6@AEBV?$vector@V?$basic_string@DU?$char_traits@D@std@@V?$allocator@D@2@@std@@V?$allocator@V?$basic_string@DU?$char_traits@D@std@@V?$allocator@D@2@@std@@@2@@6@2@Z
; public: static void __cdecl uhd::usrp::dboard_manager::register_dboard(class uhd::usrp::dboard_id_t const &__ptr64 ,class std::<class uhd::usrp::dboard_base>(__cdecl *)(void *__ptr64),class std::<char,struct std::<char>,class std::<char>> const &__ptr64 ,class std::<class std::<char,struct std::<char>,class std::<char>>,class std::<class std::<char,struct std::<char>,class std::<char>>>> const &__ptr64 ,class std::<class uhd::usrp::dboard_base>(__cdecl *)(void *__ptr64))
?register_dboard@dboard_manager@usrp@uhd@@SAXAEBVdboard_id_t@23@P6A?AV?$shared_ptr@Vdboard_base@usrp@uhd@@@std@@PEAX@ZAEBV?$basic_string@DU?$char_traits@D@std@@V?$allocator@D@2@@6@AEBV?$vector@V?$basic_string@DU?$char_traits@D@std@@V?$allocator@D@2@@std@@V?$allocator@V?$basic_string@DU?$char_traits@D@std@@V?$allocator@D@2@@std@@@2@@6@2@Z
; public: static void __cdecl uhd::usrp::dboard_manager::register_dboard_restricted(class uhd::usrp::dboard_id_t const &__ptr64 ,class uhd::usrp::dboard_id_t const &__ptr64 ,class std::<class uhd::usrp::dboard_base>(__cdecl *)(void *__ptr64),class std::<char,struct std::<char>,class std::<char>> const &__ptr64 ,class std::<class std::<char,struct std::<char>,class std::<char>>,class std::<class std::<char,struct std::<char>,class std::<char>>>> const &__ptr64 ,class std::<class uhd::usrp::dboard_base>(__cdecl *)(void *__ptr64))
?register_dboard_restricted@dboard_manager@usrp@uhd@@SAXAEBVdboard_id_t@23@0P6A?AV?$shared_ptr@Vdboard_base@usrp@uhd@@@std@@PEAX@ZAEBV?$basic_string@DU?$char_traits@D@std@@V?$allocator@D@2@@6@AEBV?$vector@V?$basic_string@DU?$char_traits@D@std@@V?$allocator@D@2@@std@@V?$allocator@V?$basic_string@DU?$char_traits@D@std@@V?$allocator@D@2@@std@@@2@@6@2@Z
; public: static void __cdecl uhd::usrp::dboard_manager::register_dboard_restricted(class uhd::usrp::dboard_id_t const &__ptr64 ,class std::<class uhd::usrp::dboard_base>(__cdecl *)(void *__ptr64),class std::<char,struct std::<char>,class std::<char>> const &__ptr64 ,class std::<class std::<char,struct std::<char>,class std::<char>>,class std::<class std::<char,struct std::<char>,class std::<char>>>> const &__ptr64 ,class std::<class uhd::usrp::dboard_base>(__cdecl *)(void *__ptr64))
?register_dboard_restricted@dboard_manager@usrp@uhd@@SAXAEBVdboard_id_t@23@P6A?AV?$shared_ptr@Vdboard_base@usrp@uhd@@@std@@PEAX@ZAEBV?$basic_string@DU?$char_traits@D@std@@V?$allocator@D@2@@6@AEBV?$vector@V?$basic_string@DU?$char_traits@D@std@@V?$allocator@D@2@@std@@V?$allocator@V?$basic_string@DU?$char_traits@D@std@@V?$allocator@D@2@@std@@@2@@6@2@Z
; public: static void __cdecl uhd::device::register_device(class std::<class std::<class uhd::device_addr_t,class std::<class uhd::device_addr_t>> __cdecl(class uhd::device_addr_t const &__ptr64 )> const &__ptr64 ,class std::<class std::<class uhd::device> __cdecl(class uhd::device_addr_t const &__ptr64 )> const &__ptr64 ,enum uhd::device::device_filter_t)
?register_device@device@uhd@@SAXAEBV?$function@$$A6A?AV?$vector@Vdevice_addr_t@uhd@@V?$allocator@Vdevice_addr_t@uhd@@@std@@@std@@AEBVdevice_addr_t@uhd@@@Z@std@@AEBV?$function@$$A6A?AV?$shared_ptr@Vdevice@uhd@@@std@@AEBVdevice_addr_t@uhd@@@Z@4@W4device_filter_t@12@@Z
; public: static void __cdecl uhd::extension::extension::register_extension(class std::<char,struct std::<char>,class std::<char>> const &__ptr64 ,class std::<class std::<class uhd::extension::extension> __cdecl(struct uhd::extension::extension::factory_args)>)
?register_extension@extension@1uhd@@SAXAEBV?$basic_string@DU?$char_traits@D@std@@V?$allocator@D@2@@std@@V?$function@$$A6A?AV?$shared_ptr@Vextension@1uhd@@@std@@Ufactory_args@extension@4uhd@@@Z@4@@Z
; public: static void __cdecl uhd::image_loader::register_image_loader(class std::<char,struct std::<char>,class std::<char>> const &__ptr64 ,class std::<bool __cdecl(struct uhd::image_loader::image_loader_args_t const &__ptr64 )> const &__ptr64 ,class std::<char,struct std::<char>,class std::<char>> const &__ptr64 )
?register_image_loader@image_loader@uhd@@SAXAEBV?$basic_string@DU?$char_traits@D@std@@V?$allocator@D@2@@std@@AEBV?$function@$$A6A_NAEBUimage_loader_args_t@image_loader@uhd@@@Z@4@0@Z
; public: static void __cdecl uhd::usrp::cal::database::register_lookup(class std::<bool __cdecl(class std::<char,struct std::<char>,class std::<char>> const &__ptr64 ,class std::<char,struct std::<char>,class std::<char>> const &__ptr64 )>,class std::<class std::<unsigned char,class std::<unsigned char>> __cdecl(class std::<char,struct std::<char>,class std::<char>> const &__ptr64 ,class std::<char,struct std::<char>,class std::<char>> const &__ptr64 )>,enum uhd::usrp::cal::source)
?register_lookup@database@cal@usrp@uhd@@SAXV?$function@$$A6A_NAEBV?$basic_string@DU?$char_traits@D@std@@V?$allocator@D@2@@std@@0@Z@std@@V?$function@$$A6A?AV?$vector@EV?$allocator@E@std@@@std@@AEBV?$basic_string@DU?$char_traits@D@std@@V?$allocator@D@2@@2@0@Z@6@W4source@234@@Z
; protected: void __cdecl uhd::rfnoc::node_t::register_property(class uhd::rfnoc::property_base_t *__ptr64,,class std::<void __cdecl(void)> *__ptr64 const)__ptr64 
?register_property@node_t@rfnoc@uhd@@IEAAXPEAVproperty_base_t@23@$$QEAV?$function@$$A6AXXZ@std@@@Z
; public: virtual void __cdecl uhd::rfnoc::mb_controller::register_sync_source_updater(class std::<void __cdecl(class uhd::device_addr_t const &__ptr64 )>)__ptr64 
?register_sync_source_updater@mb_controller@rfnoc@uhd@@UEAAXV?$function@$$A6AXAEBVdevice_addr_t@uhd@@@Z@std@@@Z
; protected: void __cdecl uhd::rfnoc::mb_controller::register_timekeeper(unsigned __int64,class std::<class uhd::rfnoc::mb_controller::timekeeper>)__ptr64 
?register_timekeeper@mb_controller@rfnoc@uhd@@IEAAX_KV?$shared_ptr@Vtimekeeper@mb_controller@rfnoc@uhd@@@std@@@Z
; public: class std::<class std::<class std::<struct std::<struct uhd::usrp::subdev_spec_pair_t>>>> __cdecl std::<struct uhd::usrp::subdev_spec_pair_t,class std::<struct uhd::usrp::subdev_spec_pair_t>>::rend(void)__ptr64 
?rend@?$vector@Usubdev_spec_pair_t@usrp@uhd@@V?$allocator@Usubdev_spec_pair_t@usrp@uhd@@@std@@@std@@QEAA?AV?$reverse_iterator@V?$_Vector_iterator@V?$_Vector_val@U?$_Simple_types@Usubdev_spec_pair_t@usrp@uhd@@@std@@@std@@@std@@@2@XZ
; public: class std::<class std::<class std::<struct std::<struct uhd::usrp::subdev_spec_pair_t>>>> __cdecl std::<struct uhd::usrp::subdev_spec_pair_t,class std::<struct uhd::usrp::subdev_spec_pair_t>>::rend(void)const __ptr64 
?rend@?$vector@Usubdev_spec_pair_t@usrp@uhd@@V?$allocator@Usubdev_spec_pair_t@usrp@uhd@@@std@@@std@@QEBA?AV?$reverse_iterator@V?$_Vector_const_iterator@V?$_Vector_val@U?$_Simple_types@Usubdev_spec_pair_t@usrp@uhd@@@std@@@std@@@std@@@2@XZ
; public: class std::<class std::<class std::<struct std::<class uhd::range_t>>>> __cdecl std::<class uhd::range_t,class std::<class uhd::range_t>>::rend(void)__ptr64 
?rend@?$vector@Vrange_t@uhd@@V?$allocator@Vrange_t@uhd@@@std@@@std@@QEAA?AV?$reverse_iterator@V?$_Vector_iterator@V?$_Vector_val@U?$_Simple_types@Vrange_t@uhd@@@std@@@std@@@std@@@2@XZ
; public: class std::<class std::<class std::<struct std::<class uhd::range_t>>>> __cdecl std::<class uhd::range_t,class std::<class uhd::range_t>>::rend(void)const __ptr64 
?rend@?$vector@Vrange_t@uhd@@V?$allocator@Vrange_t@uhd@@@std@@@std@@QEBA?AV?$reverse_iterator@V?$_Vector_const_iterator@V?$_Vector_val@U?$_Simple_types@Vrange_t@uhd@@@std@@@std@@@std@@@2@XZ
; public: void __cdecl std::<struct uhd::usrp::subdev_spec_pair_t,class std::<struct uhd::usrp::subdev_spec_pair_t>>::reserve(unsigned __int64)__ptr64 
?reserve@?$vector@Usubdev_spec_pair_t@usrp@uhd@@V?$allocator@Usubdev_spec_pair_t@usrp@uhd@@@std@@@std@@QEAAX_K@Z
; public: void __cdecl std::<class uhd::range_t,class std::<class uhd::range_t>>::reserve(unsigned __int64)__ptr64 
?reserve@?$vector@Vrange_t@uhd@@V?$allocator@Vrange_t@uhd@@@std@@@std@@QEAAX_K@Z
; public: virtual int __cdecl uhd::niusrprio::niriok_proxy_impl_v1::reset(void)__ptr64 
?reset@niriok_proxy_impl_v1@niusrprio@uhd@@UEAAHXZ
; public: virtual int __cdecl uhd::niusrprio::niriok_proxy_impl_v2::reset(void)__ptr64 
?reset@niriok_proxy_impl_v2@niusrprio@uhd@@UEAAHXZ
; public: int __cdecl uhd::niusrprio::niusrprio_session::reset(void)__ptr64 
?reset@niusrprio_session@niusrprio@uhd@@QEAAHXZ
; public: void __cdecl uhd::rx_metadata_t::reset(void)__ptr64 
?reset@rx_metadata_t@uhd@@QEAAXXZ
; public: void __cdecl std::<struct uhd::usrp::subdev_spec_pair_t,class std::<struct uhd::usrp::subdev_spec_pair_t>>::resize(unsigned __int64)__ptr64 
?resize@?$vector@Usubdev_spec_pair_t@usrp@uhd@@V?$allocator@Usubdev_spec_pair_t@usrp@uhd@@@std@@@std@@QEAAX_K@Z
; public: void __cdecl std::<struct uhd::usrp::subdev_spec_pair_t,class std::<struct uhd::usrp::subdev_spec_pair_t>>::resize(unsigned __int64,struct uhd::usrp::subdev_spec_pair_t const &__ptr64 )__ptr64 
?resize@?$vector@Usubdev_spec_pair_t@usrp@uhd@@V?$allocator@Usubdev_spec_pair_t@usrp@uhd@@@std@@@std@@QEAAX_KAEBUsubdev_spec_pair_t@usrp@uhd@@@Z
; public: void __cdecl std::<class uhd::range_t,class std::<class uhd::range_t>>::resize(unsigned __int64)__ptr64 
?resize@?$vector@Vrange_t@uhd@@V?$allocator@Vrange_t@uhd@@@std@@@std@@QEAAX_K@Z
; public: void __cdecl std::<class uhd::range_t,class std::<class uhd::range_t>>::resize(unsigned __int64,class uhd::range_t const &__ptr64 )__ptr64 
?resize@?$vector@Vrange_t@uhd@@V?$allocator@Vrange_t@uhd@@@std@@@std@@QEAAX_KAEBVrange_t@uhd@@@Z
; private: void __cdecl uhd::rfnoc::node_t::resolve_all(void)__ptr64 
?resolve_all@node_t@rfnoc@uhd@@AEAAXXZ
; private: void __cdecl uhd::rfnoc::node_t::resolve_props(void)__ptr64 
?resolve_props@node_t@rfnoc@uhd@@AEAAXXZ
; class std::<class uhd::device_addr_t,class std::<class uhd::device_addr_t>> __cdecl uhd::separate_device_addr(class uhd::device_addr_t const &__ptr64 )
?separate_device_addr@uhd@@YA?AV?$vector@Vdevice_addr_t@uhd@@V?$allocator@Vdevice_addr_t@uhd@@@std@@@std@@AEBVdevice_addr_t@1@@Z
; public: unsigned __int64 __cdecl uhd::rfnoc::chdr::ctrl_payload::serialize(unsigned __int64 *__ptr64,unsigned __int64,class std::<unsigned __int64 __cdecl(unsigned __int64)> const &__ptr64 )const __ptr64 
?serialize@ctrl_payload@chdr@rfnoc@uhd@@QEBA_KPEA_K_KAEBV?$function@$$A6A_K_K@Z@std@@@Z
; public: unsigned __int64 __cdecl uhd::rfnoc::chdr::mgmt_hop_t::serialize(class std::<unsigned __int64,class std::<unsigned __int64>> &__ptr64 ,class std::<unsigned __int64 __cdecl(unsigned __int64)> const &__ptr64 ,unsigned __int64)const __ptr64 
?serialize@mgmt_hop_t@chdr@rfnoc@uhd@@QEBA_KAEAV?$vector@_KV?$allocator@_K@std@@@std@@AEBV?$function@$$A6A_K_K@Z@6@_K@Z
; public: unsigned __int64 __cdecl uhd::rfnoc::chdr::mgmt_payload::serialize(unsigned __int64 *__ptr64,unsigned __int64,class std::<unsigned __int64 __cdecl(unsigned __int64)> const &__ptr64 )const __ptr64 
?serialize@mgmt_payload@chdr@rfnoc@uhd@@QEBA_KPEA_K_KAEBV?$function@$$A6A_K_K@Z@std@@@Z
; public: unsigned __int64 __cdecl uhd::rfnoc::chdr::strc_payload::serialize(unsigned __int64 *__ptr64,unsigned __int64,class std::<unsigned __int64 __cdecl(unsigned __int64)> const &__ptr64 )const __ptr64 
?serialize@strc_payload@chdr@rfnoc@uhd@@QEBA_KPEA_K_KAEBV?$function@$$A6A_K_K@Z@std@@@Z
; public: unsigned __int64 __cdecl uhd::rfnoc::chdr::strs_payload::serialize(unsigned __int64 *__ptr64,unsigned __int64,class std::<unsigned __int64 __cdecl(unsigned __int64)> const &__ptr64 )const __ptr64 
?serialize@strs_payload@chdr@rfnoc@uhd@@QEBA_KPEA_K_KAEBV?$function@$$A6A_K_K@Z@std@@@Z
; private: void __cdecl uhd::utils::chdr::chdr_packet::serialize_ptr(enum uhd::endianness_t,void *__ptr64,void *__ptr64)const __ptr64 
?serialize_ptr@chdr_packet@chdr@utils@uhd@@AEBAXW4endianness_t@4@PEAX1@Z
; public: class std::<unsigned char,class std::<unsigned char>> __cdecl uhd::utils::chdr::chdr_packet::serialize_to_byte_vector(enum uhd::endianness_t)const __ptr64 
?serialize_to_byte_vector@chdr_packet@chdr@utils@uhd@@QEBA?AV?$vector@EV?$allocator@E@std@@@std@@W4endianness_t@4@@Z
; public: void __cdecl uhd::<class std::<char,struct std::<char>,class std::<char>>,class std::<char,struct std::<char>,class std::<char>>>::set(class std::<char,struct std::<char>,class std::<char>> const &__ptr64 ,class std::<char,struct std::<char>,class std::<char>> const &__ptr64 )__ptr64 
?set@?$dict@V?$basic_string@DU?$char_traits@D@std@@V?$allocator@D@2@@std@@V12@@uhd@@QEAAXAEBV?$basic_string@DU?$char_traits@D@std@@V?$allocator@D@2@@std@@0@Z
; public: void __cdecl uhd::<unsigned int,0x0ULL,0x1ULL>::set(unsigned int,unsigned int)__ptr64 
?set@?$soft_register_t@I$0A@$00@uhd@@QEAAXII@Z
; public: bool __cdecl uhd::rfnoc::block_id_t::set(class std::<char,struct std::<char>,class std::<char>> const &__ptr64 )__ptr64 
?set@block_id_t@rfnoc@uhd@@QEAA_NAEBV?$basic_string@DU?$char_traits@D@std@@V?$allocator@D@2@@std@@@Z
; public: bool __cdecl uhd::rfnoc::block_id_t::set(unsigned __int64,class std::<char,struct std::<char>,class std::<char>> const &__ptr64 ,unsigned __int64)__ptr64 
?set@block_id_t@rfnoc@uhd@@QEAA_N_KAEBV?$basic_string@DU?$char_traits@D@std@@V?$allocator@D@2@@std@@0@Z
; protected: void __cdecl uhd::rfnoc::node_t::set_action_forwarding_map(class std::<struct uhd::rfnoc::res_source_info,class std::<struct uhd::rfnoc::res_source_info,class std::<struct uhd::rfnoc::res_source_info>>,struct std::<struct uhd::rfnoc::res_source_info>,struct std::<struct uhd::rfnoc::res_source_info>,class std::<struct std::<struct uhd::rfnoc::res_source_info const,class std::<struct uhd::rfnoc::res_source_info,class std::<struct uhd::rfnoc::res_source_info>>>>> const &__ptr64 )__ptr64 
?set_action_forwarding_map@node_t@rfnoc@uhd@@IEAAXAEBV?$unordered_map@Ures_source_info@rfnoc@uhd@@V?$vector@Ures_source_info@rfnoc@uhd@@V?$allocator@Ures_source_info@rfnoc@uhd@@@std@@@std@@U?$hash@Ures_source_info@rfnoc@uhd@@@5@U?$equal_to@Ures_source_info@rfnoc@uhd@@@5@V?$allocator@U?$pair@$$CBUres_source_info@rfnoc@uhd@@V?$vector@Ures_source_info@rfnoc@uhd@@V?$allocator@Ures_source_info@rfnoc@uhd@@@std@@@std@@@std@@@5@@std@@@Z
; protected: void __cdecl uhd::rfnoc::node_t::set_action_forwarding_policy(enum uhd::rfnoc::node_t::forwarding_policy_t,class std::<char,struct std::<char>,class std::<char>> const &__ptr64 )__ptr64 
?set_action_forwarding_policy@node_t@rfnoc@uhd@@IEAAXW4forwarding_policy_t@123@AEBV?$basic_string@DU?$char_traits@D@std@@V?$allocator@D@2@@std@@@Z
; public: virtual void __cdecl uhd::rfnoc::rf_control::enumerated_antenna::set_antenna(class std::<char,struct std::<char>,class std::<char>> const &__ptr64 ,unsigned __int64)__ptr64 
?set_antenna@enumerated_antenna@rf_control@rfnoc@uhd@@UEAAXAEBV?$basic_string@DU?$char_traits@D@std@@V?$allocator@D@2@@std@@_K@Z
; public: virtual int __cdecl uhd::niusrprio::niriok_proxy_impl_v1::set_attribute(enum uhd::niusrprio::nirio_device_attribute32_t,unsigned int)__ptr64 
?set_attribute@niriok_proxy_impl_v1@niusrprio@uhd@@UEAAHW4nirio_device_attribute32_t@23@I@Z
; public: virtual int __cdecl uhd::niusrprio::niriok_proxy_impl_v2::set_attribute(enum uhd::niusrprio::nirio_device_attribute32_t,unsigned int)__ptr64 
?set_attribute@niriok_proxy_impl_v2@niusrprio@uhd@@UEAAHW4nirio_device_attribute32_t@23@I@Z
; public: void __cdecl uhd::rfnoc::block_id_t::set_block_count(unsigned __int64)__ptr64 
?set_block_count@block_id_t@rfnoc@uhd@@QEAAX_K@Z
; public: bool __cdecl uhd::rfnoc::block_id_t::set_block_name(class std::<char,struct std::<char>,class std::<char>> const &__ptr64 )__ptr64 
?set_block_name@block_id_t@rfnoc@uhd@@QEAA_NAEBV?$basic_string@DU?$char_traits@D@std@@V?$allocator@D@2@@std@@@Z
; void __cdecl set_c_global_error_string(class std::<char,struct std::<char>,class std::<char>> const &__ptr64 )
?set_c_global_error_string@@YAXAEBV?$basic_string@DU?$char_traits@D@std@@V?$allocator@D@2@@std@@@Z
; public: void __cdecl uhd::rfnoc::chdr::mgmt_payload::set_chdr_w(enum uhd::rfnoc::chdr_w_t)__ptr64 
?set_chdr_w@mgmt_payload@chdr@rfnoc@uhd@@QEAAXW4chdr_w_t@34@@Z
; public: virtual void __cdecl uhd::rfnoc::node_t::set_command_time(class uhd::time_spec_t,unsigned __int64)__ptr64 
?set_command_time@node_t@rfnoc@uhd@@UEAAXVtime_spec_t@3@_K@Z
; void __cdecl uhd::log::set_console_level(enum uhd::log::severity_level)
?set_console_level@log@uhd@@YAXW4severity_level@12@@Z
; public: void __cdecl uhd::analog_filter_lp::set_cutoff(double)__ptr64 
?set_cutoff@analog_filter_lp@uhd@@QEAAXN@Z
; public: virtual int __cdecl uhd::niusrprio::niriok_proxy_impl_v1::set_device_config(void)__ptr64 
?set_device_config@niriok_proxy_impl_v1@niusrprio@uhd@@UEAAHXZ
; public: virtual int __cdecl uhd::niusrprio::niriok_proxy_impl_v2::set_device_config(void)__ptr64 
?set_device_config@niriok_proxy_impl_v2@niusrprio@uhd@@UEAAHXZ
; public: void __cdecl uhd::rfnoc::block_id_t::set_device_no(unsigned __int64)__ptr64 
?set_device_no@block_id_t@rfnoc@uhd@@QEAAX_K@Z
; void __cdecl uhd::log::set_file_level(enum uhd::log::severity_level)
?set_file_level@log@uhd@@YAXW4severity_level@12@@Z
; public: virtual void __cdecl uhd::rfnoc::mb_controller::set_gpio_src(class std::<char,struct std::<char>,class std::<char>> const &__ptr64 ,class std::<class std::<char,struct std::<char>,class std::<char>>,class std::<class std::<char,struct std::<char>,class std::<char>>>> const &__ptr64 )__ptr64 
?set_gpio_src@mb_controller@rfnoc@uhd@@UEAAXAEBV?$basic_string@DU?$char_traits@D@std@@V?$allocator@D@2@@std@@AEBV?$vector@V?$basic_string@DU?$char_traits@D@std@@V?$allocator@D@2@@std@@V?$allocator@V?$basic_string@DU?$char_traits@D@std@@V?$allocator@D@2@@std@@@2@@5@@Z
; private: void __cdecl uhd::rfnoc::node_t::set_graph_mutex_callback(,class std::<class std::recursive_mutex &__ptr64 __cdecl(void)> *__ptr64 const)__ptr64 
?set_graph_mutex_callback@node_t@rfnoc@uhd@@AEAAX$$QEAV?$function@$$A6AAEAVrecursive_mutex@std@@XZ@std@@@Z
; public: void __cdecl uhd::utils::chdr::chdr_packet::set_header(class uhd::rfnoc::chdr::chdr_header)__ptr64 
?set_header@chdr_packet@chdr@utils@uhd@@QEAAXVchdr_header@2rfnoc@4@@Z
; public: void __cdecl uhd::rfnoc::chdr::mgmt_payload::set_header(unsigned short,unsigned short,enum uhd::rfnoc::chdr_w_t)__ptr64 
?set_header@mgmt_payload@chdr@rfnoc@uhd@@QEAAXGGW4chdr_w_t@34@@Z
; private: void __cdecl uhd::utils::chdr::chdr_packet::set_header_lengths(void)__ptr64 
?set_header_lengths@chdr_packet@chdr@utils@uhd@@AEAAXXZ
; public: void __cdecl uhd::usrp::fe_connection_t::set_if_freq(double)__ptr64 
?set_if_freq@fe_connection_t@usrp@uhd@@QEAAXN@Z
; void __cdecl uhd::log::set_log_level(enum uhd::log::severity_level)
?set_log_level@log@uhd@@YAXW4severity_level@12@@Z
; void __cdecl uhd::log::set_logger_level(class std::<char,struct std::<char>,class std::<char>> const &__ptr64 ,enum uhd::log::severity_level)
?set_logger_level@log@uhd@@YAXAEBV?$basic_string@DU?$char_traits@D@std@@V?$allocator@D@2@@std@@W4severity_level@12@@Z
; public: void __cdecl uhd::utils::chdr::chdr_packet::set_metadata(class std::<unsigned __int64,class std::<unsigned __int64>>)__ptr64 
?set_metadata@chdr_packet@chdr@utils@uhd@@QEAAXV?$vector@_KV?$allocator@_K@std@@@std@@@Z
; protected: void __cdecl uhd::rfnoc::noc_block_base::set_mtu(struct uhd::rfnoc::res_source_info const &__ptr64 ,unsigned __int64)__ptr64 
?set_mtu@noc_block_base@rfnoc@uhd@@IEAAXAEBUres_source_info@23@_K@Z
; protected: void __cdecl uhd::rfnoc::noc_block_base::set_mtu_forwarding_policy(enum uhd::rfnoc::node_t::forwarding_policy_t)__ptr64 
?set_mtu_forwarding_policy@noc_block_base@rfnoc@uhd@@IEAAXW4forwarding_policy_t@node_t@23@@Z
; protected: void __cdecl uhd::rfnoc::noc_block_base::set_num_input_ports(unsigned __int64)__ptr64 
?set_num_input_ports@noc_block_base@rfnoc@uhd@@IEAAX_K@Z
; protected: void __cdecl uhd::rfnoc::noc_block_base::set_num_output_ports(unsigned __int64)__ptr64 
?set_num_output_ports@noc_block_base@rfnoc@uhd@@IEAAX_K@Z
; public: void __cdecl uhd::utils::chdr::chdr_packet::set_payload_bytes(class std::<unsigned char,class std::<unsigned char>>)__ptr64 
?set_payload_bytes@chdr_packet@chdr@utils@uhd@@QEAAXV?$vector@EV?$allocator@E@std@@@std@@@Z
; public: virtual void __cdecl uhd::rfnoc::mock_reg_iface_t::set_policy(class std::<char,struct std::<char>,class std::<char>> const &__ptr64 ,class uhd::device_addr_t const &__ptr64 )__ptr64 
?set_policy@mock_reg_iface_t@rfnoc@uhd@@UEAAXAEBV?$basic_string@DU?$char_traits@D@std@@V?$allocator@D@2@@std@@AEBVdevice_addr_t@3@@Z
; private: void __cdecl uhd::rfnoc::node_t::set_post_action_callback(,class std::<void __cdecl(struct uhd::rfnoc::res_source_info const &__ptr64 ,class std::<struct uhd::rfnoc::action_info>)> *__ptr64 const)__ptr64 
?set_post_action_callback@node_t@rfnoc@uhd@@AEAAX$$QEAV?$function@$$A6AXAEBUres_source_info@rfnoc@uhd@@V?$shared_ptr@Uaction_info@rfnoc@uhd@@@std@@@Z@std@@@Z
; protected: void __cdecl uhd::rfnoc::node_t::set_prop_forwarding_map(class std::<struct uhd::rfnoc::res_source_info,class std::<struct uhd::rfnoc::res_source_info,class std::<struct uhd::rfnoc::res_source_info>>,struct std::<struct uhd::rfnoc::res_source_info>,struct std::<struct uhd::rfnoc::res_source_info>,class std::<struct std::<struct uhd::rfnoc::res_source_info const,class std::<struct uhd::rfnoc::res_source_info,class std::<struct uhd::rfnoc::res_source_info>>>>> const &__ptr64 )__ptr64 
?set_prop_forwarding_map@node_t@rfnoc@uhd@@IEAAXAEBV?$unordered_map@Ures_source_info@rfnoc@uhd@@V?$vector@Ures_source_info@rfnoc@uhd@@V?$allocator@Ures_source_info@rfnoc@uhd@@@std@@@std@@U?$hash@Ures_source_info@rfnoc@uhd@@@5@U?$equal_to@Ures_source_info@rfnoc@uhd@@@5@V?$allocator@U?$pair@$$CBUres_source_info@rfnoc@uhd@@V?$vector@Ures_source_info@rfnoc@uhd@@V?$allocator@Ures_source_info@rfnoc@uhd@@@std@@@std@@@std@@@5@@std@@@Z
; protected: void __cdecl uhd::rfnoc::node_t::set_prop_forwarding_policy(enum uhd::rfnoc::node_t::forwarding_policy_t,class std::<char,struct std::<char>,class std::<char>> const &__ptr64 )__ptr64 
?set_prop_forwarding_policy@node_t@rfnoc@uhd@@IEAAXW4forwarding_policy_t@123@AEBV?$basic_string@DU?$char_traits@D@std@@V?$allocator@D@2@@std@@@Z
; public: void __cdecl uhd::rfnoc::node_t::set_properties(class uhd::device_addr_t const &__ptr64 ,unsigned __int64)__ptr64 
?set_properties@node_t@rfnoc@uhd@@QEAAXAEBVdevice_addr_t@3@_K@Z
; public: void __cdecl uhd::rfnoc::chdr::mgmt_payload::set_proto_ver(unsigned short)__ptr64 
?set_proto_ver@mgmt_payload@chdr@rfnoc@uhd@@QEAAXG@Z
; private: void __cdecl uhd::rfnoc::node_t::set_resolve_all_callback(,class std::<void __cdecl(void)> *__ptr64 const)__ptr64 
?set_resolve_all_callback@node_t@rfnoc@uhd@@AEAAX$$QEAV?$function@$$A6AXXZ@std@@@Z
; public: void __cdecl uhd::usrprio_rpc::usrprio_rpc_client::set_rpc_timeout(class boost::date_time::<class boost::posix_time::time_duration,0x1c0ULL>)__ptr64 
?set_rpc_timeout@usrprio_rpc_client@usrprio_rpc@uhd@@QEAAXV?$subsecond_duration@Vtime_duration@posix_time@boost@@$0DOI@@date_time@boost@@@Z
; public: virtual void __cdecl uhd::rfnoc::rf_control::antenna_radio_control_mixin::set_rx_antenna(class std::<char,struct std::<char>,class std::<char>> const &__ptr64 ,unsigned __int64)__ptr64 
?set_rx_antenna@antenna_radio_control_mixin@rf_control@rfnoc@uhd@@UEAAXAEBV?$basic_string@DU?$char_traits@D@std@@V?$allocator@D@2@@std@@_K@Z
; public: void __cdecl uhd::usrp::multi_usrp::set_rx_gain(double,unsigned __int64)__ptr64 
?set_rx_gain@multi_usrp@usrp@uhd@@QEAAXN_K@Z
; public: virtual double __cdecl uhd::rfnoc::rf_control::nameless_gain_mixin::set_rx_gain(double,unsigned __int64)__ptr64 
?set_rx_gain@nameless_gain_mixin@rf_control@rfnoc@uhd@@UEAANN_K@Z
; public: void __cdecl uhd::rfnoc::siggen_block_control::set_sine_frequency(double,double,unsigned __int64)__ptr64 
?set_sine_frequency@siggen_block_control@rfnoc@uhd@@QEAAXNN_K@Z
; public: void __cdecl uhd::rfnoc::chdr::mgmt_payload::set_src_epid(unsigned short)__ptr64 
?set_src_epid@mgmt_payload@chdr@rfnoc@uhd@@QEAAXG@Z
; void __cdecl uhd::set_thread_affinity(class std::<unsigned __int64,class std::<unsigned __int64>> const &__ptr64 )
?set_thread_affinity@uhd@@YAXAEBV?$vector@_KV?$allocator@_K@std@@@std@@@Z
; void __cdecl uhd::set_thread_name(class boost::thread *__ptr64,class std::<char,struct std::<char>,class std::<char>> const &__ptr64 )
?set_thread_name@uhd@@YAXPEAVthread@boost@@AEBV?$basic_string@DU?$char_traits@D@std@@V?$allocator@D@2@@std@@@Z
; void __cdecl uhd::set_thread_name(class std::thread *__ptr64,class std::<char,struct std::<char>,class std::<char>> const &__ptr64 )
?set_thread_name@uhd@@YAXPEAVthread@std@@AEBV?$basic_string@DU?$char_traits@D@std@@V?$allocator@D@2@@3@@Z
; void __cdecl uhd::set_thread_priority(float,bool)
?set_thread_priority@uhd@@YAXM_N@Z
; bool __cdecl uhd::set_thread_priority_safe(float,bool)
?set_thread_priority_safe@uhd@@YA_NM_N@Z
; protected: void __cdecl uhd::rfnoc::noc_block_base::set_tick_rate(double)__ptr64 
?set_tick_rate@noc_block_base@rfnoc@uhd@@IEAAXN@Z
; protected: void __cdecl uhd::rfnoc::mb_controller::timekeeper::set_tick_rate(double)__ptr64 
?set_tick_rate@timekeeper@mb_controller@rfnoc@uhd@@IEAAXN@Z
; public: virtual void __cdecl uhd::rfnoc::reg_iface_adapter::set_time(class uhd::time_spec_t const &__ptr64 )__ptr64 
?set_time@reg_iface_adapter@rfnoc@uhd@@UEAAXAEBVtime_spec_t@3@@Z
; public: void __cdecl uhd::rfnoc::mb_controller::timekeeper::set_time_next_pps(class uhd::time_spec_t const &__ptr64 )__ptr64 
?set_time_next_pps@timekeeper@mb_controller@rfnoc@uhd@@QEAAXAEBVtime_spec_t@4@@Z
; public: void __cdecl uhd::rfnoc::mb_controller::timekeeper::set_time_now(class uhd::time_spec_t const &__ptr64 )__ptr64 
?set_time_now@timekeeper@mb_controller@rfnoc@uhd@@QEAAXAEBVtime_spec_t@4@@Z
; public: void __cdecl uhd::utils::chdr::chdr_packet::set_timestamp(class boost::<unsigned __int64>)__ptr64 
?set_timestamp@chdr_packet@chdr@utils@uhd@@QEAAXV?$optional@_K@boost@@@Z
; public: virtual void __cdecl uhd::rfnoc::rf_control::antenna_radio_control_mixin::set_tx_antenna(class std::<char,struct std::<char>,class std::<char>> const &__ptr64 ,unsigned __int64)__ptr64 
?set_tx_antenna@antenna_radio_control_mixin@rf_control@rfnoc@uhd@@UEAAXAEBV?$basic_string@DU?$char_traits@D@std@@V?$allocator@D@2@@std@@_K@Z
; public: void __cdecl uhd::usrp::multi_usrp::set_tx_gain(double,unsigned __int64)__ptr64 
?set_tx_gain@multi_usrp@usrp@uhd@@QEAAXN_K@Z
; public: virtual double __cdecl uhd::rfnoc::rf_control::nameless_gain_mixin::set_tx_gain(double,unsigned __int64)__ptr64 
?set_tx_gain@nameless_gain_mixin@rf_control@rfnoc@uhd@@UEAANN_K@Z
; public: class std::<class uhd::rfnoc::rfnoc_graph> __cdecl std::<class uhd::rfnoc::rfnoc_graph>::shared_from_this(void)__ptr64 
?shared_from_this@?$enable_shared_from_this@Vrfnoc_graph@rfnoc@uhd@@@std@@QEAA?AV?$shared_ptr@Vrfnoc_graph@rfnoc@uhd@@@2@XZ
; public: class std::<class uhd::rfnoc::rfnoc_graph const> __cdecl std::<class uhd::rfnoc::rfnoc_graph>::shared_from_this(void)const __ptr64 
?shared_from_this@?$enable_shared_from_this@Vrfnoc_graph@rfnoc@uhd@@@std@@QEBA?AV?$shared_ptr@$$CBVrfnoc_graph@rfnoc@uhd@@@2@XZ
; public: void __cdecl std::<struct uhd::usrp::subdev_spec_pair_t,class std::<struct uhd::usrp::subdev_spec_pair_t>>::shrink_to_fit(void)__ptr64 
?shrink_to_fit@?$vector@Usubdev_spec_pair_t@usrp@uhd@@V?$allocator@Usubdev_spec_pair_t@usrp@uhd@@@std@@@std@@QEAAXXZ
; public: void __cdecl std::<class uhd::range_t,class std::<class uhd::range_t>>::shrink_to_fit(void)__ptr64 
?shrink_to_fit@?$vector@Vrange_t@uhd@@V?$allocator@Vrange_t@uhd@@@std@@@std@@QEAAXXZ
; private: virtual void __cdecl uhd::rfnoc::noc_block_base::shutdown(void)__ptr64 
?shutdown@noc_block_base@rfnoc@uhd@@EEAAXXZ
; protected: virtual void __cdecl uhd::rfnoc::node_t::shutdown(void)__ptr64 
?shutdown@node_t@rfnoc@uhd@@MEAAXXZ
; public: unsigned __int64 __cdecl uhd::<class std::<char,struct std::<char>,class std::<char>>,class std::<char,struct std::<char>,class std::<char>>>::size(void)const __ptr64 
?size@?$dict@V?$basic_string@DU?$char_traits@D@std@@V?$allocator@D@2@@std@@V12@@uhd@@QEBA_KXZ
; public: unsigned __int64 __cdecl uhd::<void const *__ptr64>::size(void)const __ptr64 
?size@?$ref_vector@PEBX@uhd@@QEBA_KXZ
; public: unsigned __int64 __cdecl std::<struct uhd::usrp::subdev_spec_pair_t,class std::<struct uhd::usrp::subdev_spec_pair_t>>::size(void)const __ptr64 
?size@?$vector@Usubdev_spec_pair_t@usrp@uhd@@V?$allocator@Usubdev_spec_pair_t@usrp@uhd@@@std@@@std@@QEBA_KXZ
; public: unsigned __int64 __cdecl std::<class uhd::range_t,class std::<class uhd::range_t>>::size(void)const __ptr64 
?size@?$vector@Vrange_t@uhd@@V?$allocator@Vrange_t@uhd@@@std@@@std@@QEBA_KXZ
; public: unsigned __int64 __cdecl uhd::transport::managed_buffer::size(void)const __ptr64 
?size@managed_buffer@transport@uhd@@QEBA_KXZ
; public: virtual void __cdecl uhd::usrp::dboard_iface::sleep(class std::chrono::<__int64,struct std::<0x1ULL,0x2811148ULL>> const &__ptr64 )__ptr64 
?sleep@dboard_iface@usrp@uhd@@UEAAXAEBV?$duration@_JU?$ratio@$00$0DLJKMKAA@@std@@@chrono@std@@@Z
; public: virtual void __cdecl uhd::rfnoc::mock_reg_iface_t::sleep(class uhd::time_spec_t,bool)__ptr64 
?sleep@mock_reg_iface_t@rfnoc@uhd@@UEAAXVtime_spec_t@3@_N@Z
; struct std::<class std::<char,struct std::<char>,class std::<char>>,class std::<char,struct std::<char>,class std::<char>>> __cdecl uhd::string::split(class std::<char,struct std::<char>,class std::<char>> const &__ptr64 ,class std::<char,struct std::<char>,class std::<char>> const &__ptr64 )
?split@string@uhd@@YA?AU?$pair@V?$basic_string@DU?$char_traits@D@std@@V?$allocator@D@2@@std@@V12@@std@@AEBV?$basic_string@DU?$char_traits@D@std@@V?$allocator@D@2@@4@0@Z
; public: double __cdecl uhd::meta_range_t::start(void)const __ptr64 
?start@meta_range_t@uhd@@QEBANXZ
; public: double __cdecl uhd::range_t::start(void)const __ptr64 
?start@range_t@uhd@@QEBANXZ
; public: virtual int __cdecl uhd::niusrprio::niriok_proxy_impl_v1::start_fifo(unsigned int)__ptr64 
?start_fifo@niriok_proxy_impl_v1@niusrprio@uhd@@UEAAHI@Z
; public: virtual int __cdecl uhd::niusrprio::niriok_proxy_impl_v2::start_fifo(unsigned int)__ptr64 
?start_fifo@niriok_proxy_impl_v2@niusrprio@uhd@@UEAAHI@Z
; public: double __cdecl uhd::meta_range_t::step(void)const __ptr64 
?step@meta_range_t@uhd@@QEBANXZ
; public: double __cdecl uhd::range_t::step(void)const __ptr64 
?step@range_t@uhd@@QEBANXZ
; public: double __cdecl uhd::meta_range_t::stop(void)const __ptr64 
?stop@meta_range_t@uhd@@QEBANXZ
; public: double __cdecl uhd::range_t::stop(void)const __ptr64 
?stop@range_t@uhd@@QEBANXZ
; public: virtual int __cdecl uhd::niusrprio::niriok_proxy_impl_v1::stop_all_fifos(void)__ptr64 
?stop_all_fifos@niriok_proxy_impl_v1@niusrprio@uhd@@UEAAHXZ
; public: virtual int __cdecl uhd::niusrprio::niriok_proxy_impl_v2::stop_all_fifos(void)__ptr64 
?stop_all_fifos@niriok_proxy_impl_v2@niusrprio@uhd@@UEAAHXZ
; public: virtual int __cdecl uhd::niusrprio::niriok_proxy_impl_v1::stop_fifo(unsigned int)__ptr64 
?stop_fifo@niriok_proxy_impl_v1@niusrprio@uhd@@UEAAHI@Z
; public: virtual int __cdecl uhd::niusrprio::niriok_proxy_impl_v2::stop_fifo(unsigned int)__ptr64 
?stop_fifo@niriok_proxy_impl_v2@niusrprio@uhd@@UEAAHI@Z
; public: void __cdecl uhd::usrp::dboard_eeprom_t::store(class uhd::i2c_iface &__ptr64 ,unsigned char)const __ptr64 
?store@dboard_eeprom_t@usrp@uhd@@QEBAXAEAVi2c_iface@3@E@Z
; public: class std::<char,struct std::<char>,class std::<char>> __cdecl uhd::rx_metadata_t::strerror(void)const __ptr64 
?strerror@rx_metadata_t@uhd@@QEBA?AV?$basic_string@DU?$char_traits@D@std@@V?$allocator@D@2@@std@@XZ
; class std::<unsigned char,class std::<unsigned char>> __cdecl uhd::string_to_bytes(class std::<char,struct std::<char>,class std::<char>> const &__ptr64 ,unsigned __int64)
?string_to_bytes@uhd@@YA?AV?$vector@EV?$allocator@E@std@@@std@@AEBV?$basic_string@DU?$char_traits@D@std@@V?$allocator@D@2@@3@_K@Z
; public: void __cdecl std::<struct uhd::usrp::subdev_spec_pair_t,class std::<struct uhd::usrp::subdev_spec_pair_t>>::swap(class std::<struct uhd::usrp::subdev_spec_pair_t,class std::<struct uhd::usrp::subdev_spec_pair_t>> &__ptr64 )__ptr64 
?swap@?$vector@Usubdev_spec_pair_t@usrp@uhd@@V?$allocator@Usubdev_spec_pair_t@usrp@uhd@@@std@@@std@@QEAAXAEAV12@@Z
; public: void __cdecl std::<class uhd::range_t,class std::<class uhd::range_t>>::swap(class std::<class uhd::range_t,class std::<class uhd::range_t>> &__ptr64 )__ptr64 
?swap@?$vector@Vrange_t@uhd@@V?$allocator@Vrange_t@uhd@@@std@@@std@@QEAAXAEAV12@@Z
; private: int __cdecl uhd::niusrprio::niriok_proxy_impl_v1::sync_operation(void const *__ptr64,unsigned __int64,void *__ptr64,unsigned __int64)__ptr64 
?sync_operation@niriok_proxy_impl_v1@niusrprio@uhd@@AEAAHPEBX_KPEAX1@Z
; public: virtual bool __cdecl uhd::rfnoc::mb_controller::synchronize(class std::<class std::<class uhd::rfnoc::mb_controller>,class std::<class std::<class uhd::rfnoc::mb_controller>>> &__ptr64 ,class uhd::time_spec_t const &__ptr64 ,bool)__ptr64 
?synchronize@mb_controller@rfnoc@uhd@@UEAA_NAEAV?$vector@V?$shared_ptr@Vmb_controller@rfnoc@uhd@@@std@@V?$allocator@V?$shared_ptr@Vmb_controller@rfnoc@uhd@@@std@@@2@@std@@AEBVtime_spec_t@3@_N@Z
; public: bool __cdecl uhd::sensor_value_t::to_bool(void)const __ptr64 
?to_bool@sensor_value_t@uhd@@QEBA_NXZ
; public: class std::<unsigned char,class std::<unsigned char>> __cdecl uhd::mac_addr_t::to_bytes(void)const __ptr64 
?to_bytes@mac_addr_t@uhd@@QEBA?AV?$vector@EV?$allocator@E@std@@@std@@XZ
; public: class std::<char,struct std::<char>,class std::<char>> __cdecl uhd::usrp::dboard_id_t::to_cname(void)const __ptr64 
?to_cname@dboard_id_t@usrp@uhd@@QEBA?AV?$basic_string@DU?$char_traits@D@std@@V?$allocator@D@2@@std@@XZ
; public: int __cdecl uhd::sensor_value_t::to_int(void)const __ptr64 
?to_int@sensor_value_t@uhd@@QEBAHXZ
; public: class std::<class std::<char,struct std::<char>,class std::<char>>,class std::<char,struct std::<char>,class std::<char>>,struct std::<class std::<char,struct std::<char>,class std::<char>>>,class std::<struct std::<class std::<char,struct std::<char>,class std::<char>> const,class std::<char,struct std::<char>,class std::<char>>>>> __cdecl uhd::sensor_value_t::to_map(void)const __ptr64 
?to_map@sensor_value_t@uhd@@QEBA?AV?$map@V?$basic_string@DU?$char_traits@D@std@@V?$allocator@D@2@@std@@V12@U?$less@V?$basic_string@DU?$char_traits@D@std@@V?$allocator@D@2@@std@@@2@V?$allocator@U?$pair@$$CBV?$basic_string@DU?$char_traits@D@std@@V?$allocator@D@2@@std@@V12@@std@@@2@@std@@XZ
; class std::<char,struct std::<char>,class std::<char>> __cdecl uhd::cast::to_ordinal_string(int)
?to_ordinal_string@cast@uhd@@YA?AV?$basic_string@DU?$char_traits@D@std@@V?$allocator@D@2@@std@@H@Z
; public: virtual class std::<char,struct std::<char>,class std::<char>> __cdecl uhd::analog_filter_base::to_pp_string(void)__ptr64 
?to_pp_string@analog_filter_base@uhd@@UEAA?AV?$basic_string@DU?$char_traits@D@std@@V?$allocator@D@2@@std@@XZ
; public: virtual class std::<char,struct std::<char>,class std::<char>> __cdecl uhd::analog_filter_lp::to_pp_string(void)__ptr64 
?to_pp_string@analog_filter_lp@uhd@@UEAA?AV?$basic_string@DU?$char_traits@D@std@@V?$allocator@D@2@@std@@XZ
; public: class std::<char,struct std::<char>,class std::<char>> __cdecl uhd::usrp::dboard_id_t::to_pp_string(void)const __ptr64 
?to_pp_string@dboard_id_t@usrp@uhd@@QEBA?AV?$basic_string@DU?$char_traits@D@std@@V?$allocator@D@2@@std@@XZ
; public: class std::<char,struct std::<char>,class std::<char>> __cdecl uhd::device_addr_t::to_pp_string(void)const __ptr64 
?to_pp_string@device_addr_t@uhd@@QEBA?AV?$basic_string@DU?$char_traits@D@std@@V?$allocator@D@2@@std@@XZ
; public: virtual class std::<char,struct std::<char>,class std::<char>> __cdecl uhd::filter_info_base::to_pp_string(void)__ptr64 
?to_pp_string@filter_info_base@uhd@@UEAA?AV?$basic_string@DU?$char_traits@D@std@@V?$allocator@D@2@@std@@XZ
; public: class std::<char,struct std::<char>,class std::<char>> __cdecl uhd::convert::id_type::to_pp_string(void)const __ptr64 
?to_pp_string@id_type@convert@uhd@@QEBA?AV?$basic_string@DU?$char_traits@D@std@@V?$allocator@D@2@@std@@XZ
; public: class std::<char,struct std::<char>,class std::<char>> __cdecl uhd::meta_range_t::to_pp_string(void)const __ptr64 
?to_pp_string@meta_range_t@uhd@@QEBA?AV?$basic_string@DU?$char_traits@D@std@@V?$allocator@D@2@@std@@XZ
; public: class std::<char,struct std::<char>,class std::<char>> __cdecl uhd::range_t::to_pp_string(void)const __ptr64 
?to_pp_string@range_t@uhd@@QEBA?AV?$basic_string@DU?$char_traits@D@std@@V?$allocator@D@2@@std@@XZ
; public: class std::<char,struct std::<char>,class std::<char>> __cdecl uhd::rx_metadata_t::to_pp_string(bool)const __ptr64 
?to_pp_string@rx_metadata_t@uhd@@QEBA?AV?$basic_string@DU?$char_traits@D@std@@V?$allocator@D@2@@std@@_N@Z
; public: class std::<char,struct std::<char>,class std::<char>> __cdecl uhd::sensor_value_t::to_pp_string(void)const __ptr64 
?to_pp_string@sensor_value_t@uhd@@QEBA?AV?$basic_string@DU?$char_traits@D@std@@V?$allocator@D@2@@std@@XZ
; public: class std::<char,struct std::<char>,class std::<char>> __cdecl uhd::usrp::subdev_spec_t::to_pp_string(void)const __ptr64 
?to_pp_string@subdev_spec_t@usrp@uhd@@QEBA?AV?$basic_string@DU?$char_traits@D@std@@V?$allocator@D@2@@std@@XZ
; public: class std::<char,struct std::<char>,class std::<char>> __cdecl uhd::tune_result_t::to_pp_string(void)const __ptr64 
?to_pp_string@tune_result_t@uhd@@QEBA?AV?$basic_string@DU?$char_traits@D@std@@V?$allocator@D@2@@std@@XZ
; public: double __cdecl uhd::sensor_value_t::to_real(void)const __ptr64 
?to_real@sensor_value_t@uhd@@QEBANXZ
; class std::<class std::<class std::<char,struct std::<char>,class std::<char>>,class std::<class std::<char,struct std::<char>,class std::<char>>>>,class std::<class std::<class std::<char,struct std::<char>,class std::<char>>,class std::<class std::<char,struct std::<char>,class std::<char>>>>>> __cdecl uhd::csv::to_rows(class std::<char,struct std::<char>> &__ptr64 )
?to_rows@csv@uhd@@YA?AV?$vector@V?$vector@V?$basic_string@DU?$char_traits@D@std@@V?$allocator@D@2@@std@@V?$allocator@V?$basic_string@DU?$char_traits@D@std@@V?$allocator@D@2@@std@@@2@@std@@V?$allocator@V?$vector@V?$basic_string@DU?$char_traits@D@std@@V?$allocator@D@2@@std@@V?$allocator@V?$basic_string@DU?$char_traits@D@std@@V?$allocator@D@2@@std@@@2@@std@@@2@@std@@AEAV?$basic_istream@DU?$char_traits@D@std@@@4@@Z
; public: class std::<char,struct std::<char>,class std::<char>> __cdecl uhd::rfnoc::block_id_t::to_string(void)const __ptr64 
?to_string@block_id_t@rfnoc@uhd@@QEBA?AV?$basic_string@DU?$char_traits@D@std@@V?$allocator@D@2@@std@@XZ
; public: class std::<char,struct std::<char>,class std::<char>> __cdecl uhd::utils::chdr::chdr_packet::to_string(void)const __ptr64 
?to_string@chdr_packet@chdr@utils@uhd@@QEBA?AV?$basic_string@DU?$char_traits@D@std@@V?$allocator@D@2@@std@@XZ
; public: class std::<char,struct std::<char>,class std::<char>> __cdecl uhd::rfnoc::chdr::ctrl_payload::to_string(void)const __ptr64 
?to_string@ctrl_payload@chdr@rfnoc@uhd@@QEBA?AV?$basic_string@DU?$char_traits@D@std@@V?$allocator@D@2@@std@@XZ
; public: class std::<char,struct std::<char>,class std::<char>> __cdecl uhd::usrp::dboard_id_t::to_string(void)const __ptr64 
?to_string@dboard_id_t@usrp@uhd@@QEBA?AV?$basic_string@DU?$char_traits@D@std@@V?$allocator@D@2@@std@@XZ
; public: class std::<char,struct std::<char>,class std::<char>> __cdecl uhd::device_addr_t::to_string(void)const __ptr64 
?to_string@device_addr_t@uhd@@QEBA?AV?$basic_string@DU?$char_traits@D@std@@V?$allocator@D@2@@std@@XZ
; public: class std::<char,struct std::<char>,class std::<char>> __cdecl uhd::rfnoc::graph_edge_t::to_string(void)const __ptr64 
?to_string@graph_edge_t@rfnoc@uhd@@QEBA?AV?$basic_string@DU?$char_traits@D@std@@V?$allocator@D@2@@std@@XZ
; public: class std::<char,struct std::<char>,class std::<char>> __cdecl uhd::convert::id_type::to_string(void)const __ptr64 
?to_string@id_type@convert@uhd@@QEBA?AV?$basic_string@DU?$char_traits@D@std@@V?$allocator@D@2@@std@@XZ
; public: class std::<char,struct std::<char>,class std::<char>> __cdecl uhd::mac_addr_t::to_string(void)const __ptr64 
?to_string@mac_addr_t@uhd@@QEBA?AV?$basic_string@DU?$char_traits@D@std@@V?$allocator@D@2@@std@@XZ
; public: class std::<char,struct std::<char>,class std::<char>> __cdecl uhd::rfnoc::chdr::mgmt_hop_t::to_string(void)const __ptr64 
?to_string@mgmt_hop_t@chdr@rfnoc@uhd@@QEBA?AV?$basic_string@DU?$char_traits@D@std@@V?$allocator@D@2@@std@@XZ
; public: class std::<char,struct std::<char>,class std::<char>> __cdecl uhd::rfnoc::chdr::mgmt_op_t::to_string(void)const __ptr64 
?to_string@mgmt_op_t@chdr@rfnoc@uhd@@QEBA?AV?$basic_string@DU?$char_traits@D@std@@V?$allocator@D@2@@std@@XZ
; public: class std::<char,struct std::<char>,class std::<char>> __cdecl uhd::rfnoc::chdr::mgmt_payload::to_string(void)const __ptr64 
?to_string@mgmt_payload@chdr@rfnoc@uhd@@QEBA?AV?$basic_string@DU?$char_traits@D@std@@V?$allocator@D@2@@std@@XZ
; public: class std::<char,struct std::<char>,class std::<char>> __cdecl uhd::rfnoc::chdr::strc_payload::to_string(void)const __ptr64 
?to_string@strc_payload@chdr@rfnoc@uhd@@QEBA?AV?$basic_string@DU?$char_traits@D@std@@V?$allocator@D@2@@std@@XZ
; public: class std::<char,struct std::<char>,class std::<char>> __cdecl uhd::rfnoc::chdr::strs_payload::to_string(void)const __ptr64 
?to_string@strs_payload@chdr@rfnoc@uhd@@QEBA?AV?$basic_string@DU?$char_traits@D@std@@V?$allocator@D@2@@std@@XZ
; public: class std::<char,struct std::<char>,class std::<char>> __cdecl uhd::usrp::subdev_spec_t::to_string(void)const __ptr64 
?to_string@subdev_spec_t@usrp@uhd@@QEBA?AV?$basic_string@DU?$char_traits@D@std@@V?$allocator@D@2@@std@@XZ
; public: __int64 __cdecl uhd::time_spec_t::to_ticks(double)const __ptr64 
?to_ticks@time_spec_t@uhd@@QEBA_JN@Z
; public: unsigned short __cdecl uhd::usrp::dboard_id_t::to_uint16(void)const __ptr64 
?to_uint16@dboard_id_t@usrp@uhd@@QEBAGXZ
; class uhd::range_t __cdecl uhd_range_c_to_cpp(struct uhd_range_t const *__ptr64)
?uhd_range_c_to_cpp@@YA?AVrange_t@uhd@@PEBUuhd_range_t@@@Z
; void __cdecl uhd_range_cpp_to_c(class uhd::range_t const &__ptr64 ,struct uhd_range_t *__ptr64)
?uhd_range_cpp_to_c@@YAXAEBVrange_t@uhd@@PEAUuhd_range_t@@@Z
; struct uhd::usrp::subdev_spec_pair_t __cdecl uhd_subdev_spec_pair_c_to_cpp(struct uhd_subdev_spec_pair_t const *__ptr64)
?uhd_subdev_spec_pair_c_to_cpp@@YA?AUsubdev_spec_pair_t@usrp@uhd@@PEBUuhd_subdev_spec_pair_t@@@Z
; void __cdecl uhd_subdev_spec_pair_cpp_to_c(struct uhd::usrp::subdev_spec_pair_t const &__ptr64 ,struct uhd_subdev_spec_pair_t *__ptr64)
?uhd_subdev_spec_pair_cpp_to_c@@YAXAEBUsubdev_spec_pair_t@usrp@uhd@@PEAUuhd_subdev_spec_pair_t@@@Z
; struct uhd::tune_request_t __cdecl uhd_tune_request_c_to_cpp(struct uhd_tune_request_t *__ptr64)
?uhd_tune_request_c_to_cpp@@YA?AUtune_request_t@uhd@@PEAUuhd_tune_request_t@@@Z
; struct uhd::tune_result_t __cdecl uhd_tune_result_c_to_cpp(struct uhd_tune_result_t *__ptr64)
?uhd_tune_result_c_to_cpp@@YA?AUtune_result_t@uhd@@PEAUuhd_tune_result_t@@@Z
; void __cdecl uhd_tune_result_cpp_to_c(struct uhd::tune_result_t const &__ptr64 ,struct uhd_tune_result_t *__ptr64)
?uhd_tune_result_cpp_to_c@@YAXAEBUtune_result_t@uhd@@PEAUuhd_tune_result_t@@@Z
; public: void __cdecl boost::serialization::singleton_module::unlock(void)__ptr64 
?unlock@singleton_module@serialization@boost@@QEAAXXZ
; public: virtual int __cdecl uhd::niusrprio::niriok_proxy_impl_v1::unmap_fifo_memory(struct nirio_driver_iface::rio_mmap_t &__ptr64 )__ptr64 
?unmap_fifo_memory@niriok_proxy_impl_v1@niusrprio@uhd@@UEAAHAEAUrio_mmap_t@nirio_driver_iface@@@Z
; public: virtual int __cdecl uhd::niusrprio::niriok_proxy_impl_v2::unmap_fifo_memory(struct nirio_driver_iface::rio_mmap_t &__ptr64 )__ptr64 
?unmap_fifo_memory@niriok_proxy_impl_v2@niusrprio@uhd@@UEAAHAEAUrio_mmap_t@nirio_driver_iface@@@Z
; public: void __cdecl uhd::<class std::<char,struct std::<char>,class std::<char>>,class std::<char,struct std::<char>,class std::<char>>>::update(class uhd::<class std::<char,struct std::<char>,class std::<char>>,class std::<char,struct std::<char>,class std::<char>>> const &__ptr64 ,bool)__ptr64 
?update@?$dict@V?$basic_string@DU?$char_traits@D@std@@V?$allocator@D@2@@std@@V12@@uhd@@QEAAXAEBV12@_N@Z
; public: class std::<class std::<char,struct std::<char>,class std::<char>>,class std::<class std::<char,struct std::<char>,class std::<char>>>> __cdecl uhd::<class std::<char,struct std::<char>,class std::<char>>,class std::<char,struct std::<char>,class std::<char>>>::vals(void)const __ptr64 
?vals@?$dict@V?$basic_string@DU?$char_traits@D@std@@V?$allocator@D@2@@std@@V12@@uhd@@QEBA?AV?$vector@V?$basic_string@DU?$char_traits@D@std@@V?$allocator@D@2@@std@@V?$allocator@V?$basic_string@DU?$char_traits@D@std@@V?$allocator@D@2@@std@@@2@@std@@XZ
; public: virtual int __cdecl uhd::niusrprio::niriok_proxy_impl_v1::wait_on_fifo(unsigned int,unsigned int,unsigned int,unsigned int,unsigned int,unsigned char,void *__ptr64 &__ptr64 ,unsigned int &__ptr64 ,unsigned int &__ptr64 )__ptr64 
?wait_on_fifo@niriok_proxy_impl_v1@niusrprio@uhd@@UEAAHIIIIIEAEAPEAXAEAI1@Z
; public: virtual int __cdecl uhd::niusrprio::niriok_proxy_impl_v2::wait_on_fifo(unsigned int,unsigned int,unsigned int,unsigned int,unsigned int,unsigned char,void *__ptr64 &__ptr64 ,unsigned int &__ptr64 ,unsigned int &__ptr64 )__ptr64 
?wait_on_fifo@niriok_proxy_impl_v2@niusrprio@uhd@@UEAAHIIIIIEAEAPEAXAEAI1@Z
; public: class std::<class uhd::rfnoc::rfnoc_graph> __cdecl std::<class uhd::rfnoc::rfnoc_graph>::weak_from_this(void)__ptr64 
?weak_from_this@?$enable_shared_from_this@Vrfnoc_graph@rfnoc@uhd@@@std@@QEAA?AV?$weak_ptr@Vrfnoc_graph@rfnoc@uhd@@@2@XZ
; public: class std::<class uhd::rfnoc::rfnoc_graph const> __cdecl std::<class uhd::rfnoc::rfnoc_graph>::weak_from_this(void)const __ptr64 
?weak_from_this@?$enable_shared_from_this@Vrfnoc_graph@rfnoc@uhd@@@std@@QEBA?AV?$weak_ptr@$$CBVrfnoc_graph@rfnoc@uhd@@@2@XZ
; public: void __cdecl uhd::<unsigned int,0x0ULL,0x1ULL>::write(unsigned int,unsigned int)__ptr64 
?write@?$soft_register_t@I$0A@$00@uhd@@QEAAXII@Z
; public: bool __cdecl uhd::rfnoc::property_base_t::write_access_granted(void)const __ptr64 
?write_access_granted@property_base_t@rfnoc@uhd@@QEBA_NXZ
; public: static void __cdecl uhd::usrp::cal::database::write_cal_data(class std::<char,struct std::<char>,class std::<char>> const &__ptr64 ,class std::<char,struct std::<char>,class std::<char>> const &__ptr64 ,class std::<unsigned char,class std::<unsigned char>> const &__ptr64 ,class std::<char,struct std::<char>,class std::<char>> const &__ptr64 )
?write_cal_data@database@cal@usrp@uhd@@SAXAEBV?$basic_string@DU?$char_traits@D@std@@V?$allocator@D@2@@std@@0AEBV?$vector@EV?$allocator@E@std@@@6@0@Z
; public: virtual void __cdecl uhd::i2c_iface::write_eeprom(unsigned short,unsigned short,class std::<unsigned char,class std::<unsigned char>> const &__ptr64 )__ptr64 
?write_eeprom@i2c_iface@uhd@@UEAAXGGAEBV?$vector@EV?$allocator@E@std@@@std@@@Z
; public: virtual int __cdecl uhd::niusrprio::niriok_proxy_impl_v1::write_fifo(unsigned int,unsigned int,void *__ptr64,unsigned int,unsigned int,unsigned int,unsigned int,unsigned int &__ptr64 )__ptr64 
?write_fifo@niriok_proxy_impl_v1@niusrprio@uhd@@UEAAHIIPEAXIIIIAEAI@Z
; public: virtual int __cdecl uhd::niusrprio::niriok_proxy_impl_v2::write_fifo(unsigned int,unsigned int,void *__ptr64,unsigned int,unsigned int,unsigned int,unsigned int,unsigned int &__ptr64 )__ptr64 
?write_fifo@niriok_proxy_impl_v2@niusrprio@uhd@@UEAAHIIPEAXIIIIAEAI@Z
; public: virtual void __cdecl uhd::spi_iface::write_spi(int,struct uhd::spi_config_t const &__ptr64 ,unsigned int,unsigned __int64)__ptr64 
?write_spi@spi_iface@uhd@@UEAAXHAEBUspi_config_t@2@I_K@Z
_uhd_log
uhd_async_metadata_channel
uhd_async_metadata_event_code
uhd_async_metadata_free
uhd_async_metadata_has_time_spec
uhd_async_metadata_last_error
uhd_async_metadata_make
uhd_async_metadata_time_spec
uhd_async_metadata_user_payload
uhd_dboard_eeprom_free
uhd_dboard_eeprom_get_id
uhd_dboard_eeprom_get_revision
uhd_dboard_eeprom_get_serial
uhd_dboard_eeprom_last_error
uhd_dboard_eeprom_make
uhd_dboard_eeprom_set_id
uhd_dboard_eeprom_set_revision
uhd_dboard_eeprom_set_serial
uhd_get_abi_string
uhd_get_last_error
uhd_get_version_string
uhd_mboard_eeprom_free
uhd_mboard_eeprom_get_value
uhd_mboard_eeprom_last_error
uhd_mboard_eeprom_make
uhd_mboard_eeprom_set_value
uhd_meta_range_at
uhd_meta_range_clip
uhd_meta_range_free
uhd_meta_range_last_error
uhd_meta_range_make
uhd_meta_range_push_back
uhd_meta_range_size
uhd_meta_range_start
uhd_meta_range_step
uhd_meta_range_stop
uhd_meta_range_to_pp_string
uhd_range_to_pp_string
uhd_rx_metadata_end_of_burst
uhd_rx_metadata_error_code
uhd_rx_metadata_fragment_offset
uhd_rx_metadata_free
uhd_rx_metadata_has_time_spec
uhd_rx_metadata_last_error
uhd_rx_metadata_make
uhd_rx_metadata_more_fragments
uhd_rx_metadata_out_of_sequence
uhd_rx_metadata_start_of_burst
uhd_rx_metadata_strerror
uhd_rx_metadata_time_spec
uhd_rx_metadata_to_pp_string
uhd_rx_streamer_free
uhd_rx_streamer_issue_stream_cmd
uhd_rx_streamer_last_error
uhd_rx_streamer_make
uhd_rx_streamer_max_num_samps
uhd_rx_streamer_num_channels
uhd_rx_streamer_recv
uhd_sensor_value_data_type
uhd_sensor_value_free
uhd_sensor_value_last_error
uhd_sensor_value_make
uhd_sensor_value_make_from_bool
uhd_sensor_value_make_from_int
uhd_sensor_value_make_from_realnum
uhd_sensor_value_make_from_string
uhd_sensor_value_name
uhd_sensor_value_to_bool
uhd_sensor_value_to_int
uhd_sensor_value_to_pp_string
uhd_sensor_value_to_realnum
uhd_sensor_value_unit
uhd_sensor_value_value
uhd_set_thread_priority
uhd_string_vector_at
uhd_string_vector_free
uhd_string_vector_last_error
uhd_string_vector_make
uhd_string_vector_push_back
uhd_string_vector_size
uhd_subdev_spec_at
uhd_subdev_spec_free
uhd_subdev_spec_last_error
uhd_subdev_spec_make
uhd_subdev_spec_pair_free
uhd_subdev_spec_pairs_equal
uhd_subdev_spec_push_back
uhd_subdev_spec_size
uhd_subdev_spec_to_pp_string
uhd_subdev_spec_to_string
uhd_tune_result_to_pp_string
uhd_tx_metadata_end_of_burst
uhd_tx_metadata_free
uhd_tx_metadata_has_time_spec
uhd_tx_metadata_last_error
uhd_tx_metadata_make
uhd_tx_metadata_start_of_burst
uhd_tx_metadata_time_spec
uhd_tx_streamer_free
uhd_tx_streamer_last_error
uhd_tx_streamer_make
uhd_tx_streamer_max_num_samps
uhd_tx_streamer_num_channels
uhd_tx_streamer_recv_async_msg
uhd_tx_streamer_send
uhd_usrp_clear_command_time
uhd_usrp_clock_find
uhd_usrp_clock_free
uhd_usrp_clock_get_num_boards
uhd_usrp_clock_get_pp_string
uhd_usrp_clock_get_sensor
uhd_usrp_clock_get_sensor_names
uhd_usrp_clock_get_time
uhd_usrp_clock_last_error
uhd_usrp_clock_make
uhd_usrp_find
uhd_usrp_free
uhd_usrp_get_clock_source
uhd_usrp_get_clock_sources
uhd_usrp_get_dboard_eeprom
uhd_usrp_get_fe_rx_freq_range
uhd_usrp_get_fe_tx_freq_range
uhd_usrp_get_gpio_attr
uhd_usrp_get_gpio_banks
uhd_usrp_get_master_clock_rate
uhd_usrp_get_mboard_eeprom
uhd_usrp_get_mboard_name
uhd_usrp_get_mboard_sensor
uhd_usrp_get_mboard_sensor_names
uhd_usrp_get_normalized_rx_gain
uhd_usrp_get_normalized_tx_gain
uhd_usrp_get_num_mboards
uhd_usrp_get_pp_string
uhd_usrp_get_rx_antenna
uhd_usrp_get_rx_antennas
uhd_usrp_get_rx_bandwidth
uhd_usrp_get_rx_bandwidth_range
uhd_usrp_get_rx_freq
uhd_usrp_get_rx_freq_range
uhd_usrp_get_rx_gain
uhd_usrp_get_rx_gain_names
uhd_usrp_get_rx_gain_range
uhd_usrp_get_rx_info
uhd_usrp_get_rx_lo_export_enabled
uhd_usrp_get_rx_lo_freq
uhd_usrp_get_rx_lo_names
uhd_usrp_get_rx_lo_source
uhd_usrp_get_rx_lo_sources
uhd_usrp_get_rx_num_channels
uhd_usrp_get_rx_rate
uhd_usrp_get_rx_rates
uhd_usrp_get_rx_sensor
uhd_usrp_get_rx_sensor_names
uhd_usrp_get_rx_stream
uhd_usrp_get_rx_subdev_name
uhd_usrp_get_rx_subdev_spec
uhd_usrp_get_time_last_pps
uhd_usrp_get_time_now
uhd_usrp_get_time_source
uhd_usrp_get_time_sources
uhd_usrp_get_time_synchronized
uhd_usrp_get_tx_antenna
uhd_usrp_get_tx_antennas
uhd_usrp_get_tx_bandwidth
uhd_usrp_get_tx_bandwidth_range
uhd_usrp_get_tx_freq
uhd_usrp_get_tx_freq_range
uhd_usrp_get_tx_gain
uhd_usrp_get_tx_gain_names
uhd_usrp_get_tx_gain_range
uhd_usrp_get_tx_info
uhd_usrp_get_tx_lo_export_enabled
uhd_usrp_get_tx_lo_freq
uhd_usrp_get_tx_lo_names
uhd_usrp_get_tx_lo_source
uhd_usrp_get_tx_lo_sources
uhd_usrp_get_tx_num_channels
uhd_usrp_get_tx_rate
uhd_usrp_get_tx_rates
uhd_usrp_get_tx_sensor
uhd_usrp_get_tx_sensor_names
uhd_usrp_get_tx_stream
uhd_usrp_get_tx_subdev_name
uhd_usrp_get_tx_subdev_spec
uhd_usrp_last_error
uhd_usrp_make
uhd_usrp_rx_info_free
uhd_usrp_set_clock_source
uhd_usrp_set_clock_source_out
uhd_usrp_set_command_time
uhd_usrp_set_dboard_eeprom
uhd_usrp_set_gpio_attr
uhd_usrp_set_master_clock_rate
uhd_usrp_set_mboard_eeprom
uhd_usrp_set_normalized_rx_gain
uhd_usrp_set_normalized_tx_gain
uhd_usrp_set_rx_agc
uhd_usrp_set_rx_antenna
uhd_usrp_set_rx_bandwidth
uhd_usrp_set_rx_dc_offset_enabled
uhd_usrp_set_rx_freq
uhd_usrp_set_rx_gain
uhd_usrp_set_rx_iq_balance_enabled
uhd_usrp_set_rx_lo_export_enabled
uhd_usrp_set_rx_lo_freq
uhd_usrp_set_rx_lo_source
uhd_usrp_set_rx_rate
uhd_usrp_set_rx_subdev_spec
uhd_usrp_set_time_next_pps
uhd_usrp_set_time_now
uhd_usrp_set_time_source
uhd_usrp_set_time_source_out
uhd_usrp_set_time_unknown_pps
uhd_usrp_set_tx_antenna
uhd_usrp_set_tx_bandwidth
uhd_usrp_set_tx_freq
uhd_usrp_set_tx_gain
uhd_usrp_set_tx_lo_export_enabled
uhd_usrp_set_tx_lo_freq
uhd_usrp_set_tx_lo_source
uhd_usrp_set_tx_rate
uhd_usrp_set_tx_subdev_spec
uhd_usrp_set_user_register
uhd_usrp_tx_info_free
